mads 1.9.3
     1 				; This file was compiled from the original source
     2 				; files in 2016.
     3 				;
     4 				; It contains all source files from
     5 				; the 1988- Disk:
     6 				;
     7 				;	- BMEINE.ATR
     8 				;		- 	DLIST.SRC
     9 				;			Playfield Graphics- Displaylist and
    10 				;			DLI's
    11 				;
    12 				;		- 	MAINPRG.SRC 
    13 				;			Game Logic 
    14 				;		
    15 				;	- CMEINE.ATR
    16 				;		- 	IMAGES.ATM
    17 				; 			Main charakter animation GFX
    18 				;			
    19 				;
    20 				; THIS SOURCE IS THE CONTINUED WORK ON THE 'Joined_1988.asm' 
    21 				; VERSION.
    22 				;
    23 				; All added parts of the code are written in lower case.
    24 				; All added comments are written in english....
    25 				;
    26 				; This source can be compiled and run on an emulator
    27 				; or the real machine!
    28 				;
    29 				;------------------------------------------------------
    30 				; Instructions:
    31 				; Compile and start. In the emulator
    32 				; open the 'media' window. Switch diskdrive #1
    33 				; on. Insert Disk 'SMEINE.ATR' Press Fire.
    34 				; The First Level will be loaded and displayed.
    35 				; 
    36 				; Player data will not be loaded. This still 
    37 				; has to be added in this code (8.5.2016)
    38 				;------------------------------------------------------
    39 				; BMeine.atr
    40 				;
    41 				; Dlist.src
    42 				; DISPLAYIST FUER PLAYFIELD
    43 				; (LEGENDE)
    44 				;------------------------------------------------------
    45 				; Original:			1988
    46 				; †berarbeite: 		06.05.2016
    47 				; Original: 		BMEINE.ATR
    48 				; Original Source:	DLIST.SRC 
    49 				; IDE: ATMASSII (Hofacker)
    50 				;
    51 				; Every line after this commend remained 
    52 				; untouched and is written exactly as it
    53 				; was back in 1988 (except for the adjusted
    54 				; assembler directives)
    55 				;------------------------------------------------------
    56 				; 
    57
    58 						.local		;08.05.2016 Local block to avoid double lables...
    59 						
    60 = 5000			BUFFER   EQU $5000  ;BILDRAM
    61 				;
    62 = 0304			DBUFLO	EQU 772   	;BUFFER LOW 
    63 = 0305			DBUFHI	EQU 773   	;BUFFER HI
    64 = 030A			DAUX1	EQU 778   	;SEKTORNUMMER LOW
    65 = 030B			DAUX2	EQU 779   	;SEKTORNUMMER HI
    66 = 0302			DCOMND	EQU 770	 	;KOMMANDO
    67 = E453			DSKINV	EQU 58451 	;IO ROTINE
    68 = A000			PLAYF 	EQU $A000 	;PLAYFIELD.
    69 				;
    70 					ORG $A800
    71 FFFF> A800-AC73> 4C CB + 	JMP START
    72 				;
    73 A803			DLIST	
    74 A803 F0				.byte 112+128	
    75 A804 42				.byte 2+64
    76 A805 70 A8			.word NAME
    77 A807 A0				.byte 32+128
    78 A808 4E				.byte 14+64
    79 					; 59 lines of gr. 15 mode..
    80 A809 00 10			.word $1000
    81 A80B 8E 0E 0E 8E 0E 0E		.byte 14+128,14,14,14+128,14,14	
    82 A811 8E 0E 0E 8E 0E 0E		.byte 14+128,14,14,14+128,14,14
    83 A817 0E 0E 8E 0E 0E 8E + 	.byte 14,14,14+128,14,14,14+128,14,14
    84 A81F 0E 0E 8E 0E 0E 8E + 	.byte 14,14,14+128,14,14,14+128,14,14
    85 A827 0E 0E 8E 0E 0E 8E + 	.byte 14,14,14+128,14,14,14+128,14,14
    86 A82F 0E 0E 8E 0E 0E 0E + 	.byte 14,14,14+128,14,14,14,14,14
    87 A837 0E 0E 0E 0E 0E 0E + 	.byte 14,14,14,14,14,14,14,14
    88 A83F 0E 0E 0E 0E 8E		.byte 14,14,14,14,14+128
    89 A844 44				.byte 4+64
    90 A845 00 A0			.word PLAYF
    91 A847 04 04 04 04 04 04 + 	.byte 4,4,4,4,4,4,4,4,4,4,4,4,4,4
    92 A855 84				.byte 4+128
    93 A856 8D				.byte 13+128
    94 A857 42				.byte 2+64
    95 A858 98 A8			.word SCORE
    96 A85A 02 02			.byte 2,2
    97 A85C 41				.byte 65
    98 A85D 03 A8			.word DLIST
    99 				;
   100 				; LOADSCREEN
   101 				;
   102 A85F			LOADSCR	
   103 A85F 70 70 70 70 70 70		.byte 112,112,112,112,112,112
   104 A865 47				.byte 7+64
   105 A866 94 A9			.word LSCREEN
   106 A868 07				.byte 7
   107 A869 70				.byte 112
   108 A86A 66				.byte 6+64+32
   109 A86B			LNAME	
   110 A86B 00 00			.byte 0,0
   111 A86D 41				.byte 65
   112 A86E 5F A8			.word LOADSCR
   113 				;
   114 				; NAME DES LEVELS UND SCOREANZEIGE
   115 				;
   116 A870 00 00 00 00 00 00 + NAME	.byte "         Die Burg des Terrors           "
   117 A898 30 35 2E 2B 34 25 + SCORE	.byte "PUNKTE: 00000000         LEBEN: 01      "
   118 A8C0 00 00 00 00 00 00 + 		.byte "                                        "
   119 A8E8 22 26 07 18 19 00 + 		.byte "BF'89 SOFTWAREPROJEKTE ALLER ART!!!!    "
   120 				;
   121 				; ADRESSEN DER LEVE NAMES
   122 				;
   123 A910 1C 30 44 58		ADR	.byte <L1,<L2,<L3,<L4
   124 A914 6C 80			.byte <L5,<L6
   125 A916			ADRH	
   126 A916 A9 A9 A9 A9			.byte >L1,>L2,>L3,>L4
   127 A91A A9 A9			.byte >L5,>L6
   128 				;
   129 				; NAMEN DER LEVEL 1-6
   130 				;
   131 A91C 27 25 28 34 00 25 + L1	.byte "GEHT ES LOS!........"
   132 A930 27 25 28 34 00 37 + L2	.byte "GEHT WEITER IM TAKT."
   133 A944 27 25 34 00 25 33 + L3	.byte "GET ES RUND!!!......"
   134 A958 2B 2F 2D 34 00 2E + L4	.byte "KOMT NOCH EIN LEVEL?"
   135 A96C 27 25 34 00 25 33 + L5	.byte "GET ES RICHTIG LOS! "
   136 A980 24 21 33 00 26 29 + L6	.byte "DAS FINALE!(ENDLICH)"	
   137 				;
   138 A994			LSCREEN
   139 A994 24 21 33 00 33 30 + 	.byte "DAS SPIEL BEGINNT..."
   140 A9A8 35 2E 24 00 2A 25 + 	.byte "UND JETZT:          "
   141 				;
   142 				; SEKTORTABELLE FUER BACKGROUNG GR.
   143 				;
   144 A9BC			STAB	
   145 A9BC A5 CE F7 20			.byte <421,<462,<503,<544
   146 A9C0 49 72			.byte <585,<626
   147 A9C2			STABH	
   148 A9C2 01 01 01 02			.byte >421,>462,>503,>544
   149 A9C6 02 02			.byte >585,>626
   150 				;
   151 A9C8 00			LAENGE	.byte 0 	;ANZAHL DER SEKTOREN
   152 A9C9 03			LEVEL	.byte 3
   153 A9CA 00			ZAELER	.byte 0 	;FUER VSCROLL
   154 				;
   155 				; LADEROTINE FUER:
   156 				; ZEICHENSATZ 1-3
   157 				; BACKGROUND GRAFIK
   158 				; UND PLAYFIELD
   159 				;
   160 				; LADE PLAYFIELD
   161 				;
   162 A9CB			START	
   163 A9CB 20 4B AA			JSR SLSCR
   164 A9CE AE C9 A9			LDX LEVEL  		;NUMMER DES LEVELS
   165 A9D1 BD BC A9			LDA STAB,X   	;SEKTORLOW 	
   166 A9D4 8D 0A 03			STA DAUX1
   167 A9D7 BD C2 A9			LDA STABH,X  	;SEKTORHI
   168 A9DA 8D 0B 03			STA DAUX2
   169 A9DD A9 00			LDA #<PLAYF		;BUFFERLOW
   170 A9DF 8D 04 03			STA DBUFLO
   171 A9E2 A9 A0			LDA #>PLAYF	 	;BUFFER HI
   172 A9E4 8D 05 03			STA DBUFHI     
   173 A9E7 A9 05			LDA #5
   174 A9E9 8D C8 A9			STA LAENGE
   175 				; LOAD
   176 A9EC			LOADBACK	
   177 A9EC 20 53 E4			JSR DSKINV
   178 A9EF 20 27 AA			JSR INCBUFF  	;BUFFER+128
   179 A9F2 20 39 AA			JSR SEKTOR
   180 A9F5 CE C8 A9			DEC LAENGE
   181 A9F8 AD C8 A9			LDA LAENGE   	;ENDE?
   182 A9FB C9 00			CMP #0
   183 A9FD D0 ED			BNE LOADBACK 	;NOE ->WEITER.
   184 				;
   185 				; ZEICHENSAETZE LADEN
   186 				;
   187 A9FF A9 00			LDA #<ZSATZ
   188 AA01 8D 04 03			STA DBUFLO
   189 AA04 A9 48			LDA #>ZSATZ
   190 AA06 8D 05 03			STA DBUFHI
   191 AA09 A9 12			LDA #18
   192 AA0B 8D C8 A9			STA LAENGE
   193 				;
   194 AA0E 20 53 E4		LOADCH	JSR DSKINV
   195 AA11 20 39 AA			JSR SEKTOR
   196 AA14 20 27 AA			JSR INCBUFF
   197 AA17 CE C8 A9			DEC LAENGE
   198 AA1A AD C8 A9			LDA LAENGE
   199 AA1D C9 00			CMP #0
   200 AA1F D0 ED			BNE LOADCH
   201 AA21 20 80 AA			JSR UPSCROLL  	;TEXT WEG
   202 AA24 4C A5 AA			JMP RUN
   203 				;
   204 				; BUFFER UM 128 BYTES ERHOEHEN.
   205 				;
   206 AA27			INCBUFF	
   207 AA27 18				CLC
   208 AA28 AD 04 03			LDA DBUFLO
   209 AA2B 69 80			ADC #128
   210 AA2D 8D 04 03			STA DBUFLO
   211 AA30 AD 05 03			LDA DBUFHI
   212 AA33 69 00			ADC #0
   213 AA35 8D 05 03			STA DBUFHI
   214 AA38 60				RTS
   215 				;
   216 				; SEKTOR +1
   217 				;
   218 AA39			SEKTOR	
   219 AA39 18				CLC
   220 AA3A AD 0A 03			LDA DAUX1
   221 AA3D 69 01			ADC #1
   222 AA3F 8D 0A 03			STA DAUX1
   223 AA42 AD 0B 03			LDA DAUX2
   224 AA45 69 00			ADC #0
   225 AA47 8D 0B 03			STA DAUX2
   226 AA4A 60				RTS
   227 				;
   228 				; SUBROTINE -LOADSCREEN ZEIGEN
   229 				;
   230 AA4B			SLSCR	
   231 AA4B AE C9 A9			LDX LEVEL  		;LEVELNAME
   232 AA4E BD 10 A9			LDA ADR,X  		;AUSGEBEN.
   233 AA51 8D 6B A8			STA LNAME
   234 AA54 BD 16 A9			LDA ADRH,X
   235 AA57 8D 6C A8			STA LNAME+1
   236 				;
   237 AA5A A9 5F			LDA #<LOADSCR 	;DLIST EIN.
   238 AA5C 8D 30 02			STA 560
   239 AA5F A9 A8			LDA #>LOADSCR
   240 AA61 8D 31 02			STA 561
   241 				;
   242 AA64 A9 08			LDA #8
   243 AA66 8D 05 D4			STA 54277   	;VSCROLL
   244 AA69 8D CA A9			STA ZAELER
   245 AA6C			SCROLL	
   246 AA6C CE CA A9			DEC ZAELER  	;TEXT RUNTER-
   247 AA6F AD CA A9			LDA ZAELER   	;SCROLLEN
   248 AA72 8D 05 D4			STA 54277
   249 AA75 20 9C AA			JSR WARTEN
   250 AA78 AD CA A9			LDA ZAELER
   251 AA7B C9 00			CMP #0
   252 AA7D D0 ED			BNE SCROLL
   253 AA7F 60				RTS
   254 				;
   255 AA80			UPSCROLL	
   256 AA80 A9 00			LDA #0       	;TEXT RAUF-
   257 AA82 8D 05 D4			STA 54277   	;SCROLLEN.
   258 AA85 8D CA A9			STA ZAELER
   259 AA88			UPSC	
   260 AA88 EE CA A9			INC ZAELER
   261 AA8B AD CA A9			LDA ZAELER
   262 AA8E 8D 05 D4			STA 54277
   263 AA91 20 9C AA			JSR WARTEN
   264 AA94 AD CA A9			LDA ZAELER
   265 AA97 C9 07			CMP #7
   266 AA99 D0 ED			BNE UPSC
   267 AA9B 60				RTS
   268 				;
   269 AA9C			WARTEN	
   270 AA9C A9 FA			LDA #250     	;KURZ WARTEN.
   271 AA9E 85 14			STA $14
   272 AAA0			WART	
   273 AAA0 A5 14			LDA $14
   274 AAA2 D0 FC			BNE WART
   275 AAA4 60				RTS
   276 				;
   277 				; AKTIVIERE DLI UND ZEIGE PLAYFIELD
   278 				;
   279 AAA5			RUN	
   280 AAA5 A9 03			LDA #<DLIST
   281 AAA7 8D 30 02			STA 560
   282 AAAA A9 A8			LDA #>DLIST
   283 AAAC 8D 31 02			STA 561
   284 				;
   285 AAAF A9 C1			LDA #<DLI1   	;1. DLI ROTINE
   286 AAB1 8D 00 02			STA 512	  		; AUFRUFEN.
   287 AAB4 A9 AA			LDA #>DLI1
   288 AAB6 8D 01 02			STA 513
   289 AAB9 A9 C0			LDA #192
   290 AABB 8D 0E D4			STA 54286
   291 				;
   292 AABE 4C 00 58			JMP $5800		;08.05.2016 => Start LegendeMain.asm!
   293 				;------------------------------------
   294 				; DISPLAY INTERUPT UNTERPROGRAMME
   295 				;
   296 				; -DLI1:GRAPHICS 0 ZEILE RAINBOW COLOR
   297 				; -DLI2:SPIELFELD BLAU (DUNKEL)
   298 				; -DLI3:SPIELFELD BLAU (HELL  )
   299 				;-------------------------------------
   300 				;
   301 = D016			COLPF0	EQU $D016
   302 = D017			COLPF1	EQU $D017
   303 = D018			COLPF2	EQU $D018
   304 = D019			COLPF3	EQU $D019
   305 = D01A			COLPF4	EQU $D01A
   306 = D40B			VCOUNT	EQU $D40B
   307 = D40A			WSYNC	EQU $D40A
   308 = D409			ZEIGER	EQU $D409
   309 = 0200			DLIVKTL	EQU 512
   310 = 0201			DLIVKTH	EQU 513
   311 = 4800			ZSATZ	EQU 18432
   312 				;
   313 AAC1			DLI1	
   314 AAC1 48				PHA        			;ALLE REG.VOM STACK
   315 AAC2 A9 06			LDA #6
   316 AAC4 8D 17 D0			STA COLPF1
   317 AAC7 A9 75			LDA #117
   318 AAC9 8D 18 D0			STA COLPF2	
   319 AACC 8D 1A D0			STA COLPF4
   320 AACF A9 E0			LDA #224     		;BEKOMMT FEST SP.
   321 AAD1 8D 09 D4			STA ZEIGER
   322 AAD4 A9 E0			LDA #<DLI2			;ZEIGER AUF NEUHE
   323 AAD6 8D 00 02			STA DLIVKTL 		; ROTINE.
   324 AAD9 A9 AA			LDA #>DLI2
   325 AADB 8D 01 02			STA DLIVKTH
   326 AADE 68				PLA        			;RETURN F.INTERUPT.
   327 AADF 40				RTI
   328 				;
   329 				; INTERUPT 2
   330 				;
   331 AAE0			DLI2	
   332 AAE0 48				PHA
   333 AAE1 A9 0C			lda #12
   334 AAE3 8D 17 D0			sta colpf1
   335 AAE6 A9 75			LDA #117
   336 AAE8 8D 1A D0			STA COLPF4
   337 AAEB A9 F7			LDA #<DLI3	 		;ZEIGER AUF NEUHE
   338 AAED 8D 00 02			STA DLIVKTL  		;ROTINE.
   339 AAF0 A9 AA			LDA #>DLI3
   340 AAF2 8D 01 02			STA DLIVKTH
   341 AAF5 68				PLA
   342 AAF6 40				RTI	
   343 				;
   344 				; INTERUPT 3
   345 				;
   346 AAF7			DLI3	
   347 AAF7 48				PHA
   348 AAF8 A9 0E			LDA #14
   349 AAFA 8D 0A D4			STA WSYNC
   350 AAFD 8D 18 D0			STA COLPF2
   351 					
   352 AB00 A9 76			LDA #118
   353 AB02 8D 0A D4			STA WSYNC
   354 AB05 8D 1A D0			STA COLPF4
   355 AB08 A9 14			LDA #<DLI4  		;ZEIGER AUF NEUHE
   356 AB0A 8D 00 02			STA DLIVKTL  		;ROTINE.
   357 AB0D A9 AB			LDA #>DLI4
   358 AB0F 8D 01 02			STA DLIVKTH
   359 AB12 68				PLA
   360 AB13 40				RTI
   361 				;
   362 				; INTERUPT 4 
   363 				;
   364 AB14			DLI4	
   365 AB14 48				PHA
   366 					
   367 AB15 A9 0C			LDA #12
   368 AB17 8D 0A D4			STA WSYNC
   369 AB1A 8D 18 D0			STA COLPF2
   370 					
   371 AB1D A9 77			LDA #119
   372 AB1F 8D 0A D4			STA WSYNC
   373 AB22 8D 1A D0			STA COLPF4
   374 AB25 A9 31			LDA #<DLI5
   375 AB27 8D 00 02			STA DLIVKTL
   376 AB2A A9 AB			LDA #>DLI5
   377 AB2C 8D 01 02			STA DLIVKTH
   378 AB2F 68				PLA
   379 AB30 40				RTI 
   380 				;
   381 				; INTERUPT 5
   382 				;
   383 AB31			DLI5	
   384 AB31 48				PHA
   385 AB32 A9 0E			LDA #14
   386 AB34 8D 18 D0			STA COLPF2
   387 AB37 8D 0A D4			STA WSYNC
   388 AB3A A9 78			LDA #120
   389 AB3C 8D 1A D0			STA COLPF4
   390 AB3F A9 4B			LDA #<DLI6 				;ZEIGER AUF NEUHE
   391 AB41 8D 00 02			STA DLIVKTL  			;ROTINE.
   392 AB44 A9 AB			LDA #>DLI6
   393 AB46 8D 01 02			STA DLIVKTH
   394 AB49 68				PLA
   395 AB4A 40				RTI
   396
   397 				;
   398 				; INTERUPT 6
   399 				;
   400 AB4B			DLI6	
   401 AB4B 48				PHA
   402 AB4C 8D 0A D4			STA WSYNC
   403 AB4F A9 0E			LDA #14
   404 AB51 8D 18 D0			STA COLPF2
   405 AB54 8D 0A D4			STA WSYNC
   406 AB57 A9 79			LDA #121
   407 AB59 8D 1A D0			STA COLPF4
   408 AB5C A9 68			LDA #<DLI7  			;ZEIGER AUF NEUHE
   409 AB5E 8D 00 02			STA DLIVKTL  			;ROTINE.
   410 AB61 A9 AB			LDA #>DLI7
   411 AB63 8D 01 02			STA DLIVKTH
   412 AB66 68				PLA
   413 AB67 40				RTI
   414 				;
   415 				; INTERUPT 7
   416 				;
   417 AB68			DLI7	
   418 AB68 48				PHA
   419 					
   420 AB69 A9 0E			LDA #14
   421 AB6B 8D 18 D0			STA COLPF2
   422 AB6E A9 7A			LDA #122
   423 AB70 8D 1A D0			STA COLPF4
   424 AB73 A9 7F			LDA #<DLI8  			;ZEIGER AUF NEUHE
   425 AB75 8D 00 02			STA DLIVKTL  			;ROTINE.
   426 AB78 A9 AB			LDA #>DLI8
   427 AB7A 8D 01 02			STA DLIVKTH
   428 AB7D 68				PLA
   429 AB7E 40				RTI	
   430 				;
   431 				; INTERUPT 8
   432 				;
   433 AB7F			DLI8	
   434 AB7F 48				PHA
   435 AB80 A9 0E			lda #14
   436 AB82 8D 18 D0			sta colpf2
   437 AB85 8D 0A D4			STA WSYNC
   438 AB88 A9 7B			LDA #123
   439 AB8A 8D 1A D0			STA COLPF4
   440 AB8D A9 99			LDA #<DLI9  			;ZEIGER AUF NEUHE
   441 AB8F 8D 00 02			STA DLIVKTL 			;ROTINE.
   442 AB92 A9 AB			LDA #>DLI9
   443 AB94 8D 01 02			STA DLIVKTH
   444 AB97 68				PLA
   445 AB98 40				RTI
   446 				;
   447 				; INTERUPT 9 
   448 				;
   449 AB99			DLI9	
   450 AB99 48				PHA
   451 AB9A A9 06			lda #6
   452 AB9C 8D 17 D0			sta colpf1
   453 AB9F A9 34			lda #52
   454 ABA1 8D 0A D4			STA WSYNC
   455 ABA4 8D 18 D0			sta colpf2
   456 ABA7 A9 7C			LDA #124
   457 ABA9 8D 0A D4			STA WSYNC
   458 ABAC 8D 1A D0			STA COLPF4
   459 ABAF A9 BB			LDA #<DLI10
   460 ABB1 8D 00 02			STA DLIVKTL
   461 ABB4 A9 AB			LDA #>DLI10
   462 ABB6 8D 01 02			STA DLIVKTH
   463 ABB9 68				PLA
   464 ABBA 40				RTI 
   465 				;
   466 				; INTERUPT 10
   467 				;
   468 ABBB			DLI10	
   469 ABBB 48				PHA
   470
   471 ABBC A9 7D			LDA #125
   472 ABBE 8D 0A D4			STA WSYNC
   473 ABC1 8D 1A D0			STA COLPF4
   474 ABC4 A9 D0			LDA #<DLI11  			;ZEIGER AUF NEUHE
   475 ABC6 8D 00 02			STA DLIVKTL  			;ROTINE.
   476 ABC9 A9 AB			LDA #>DLI11
   477 ABCB 8D 01 02			STA DLIVKTH
   478 ABCE 68				PLA
   479 ABCF 40				RTI
   480 				;
   481 				; INTERUPT 11
   482 				;
   483 ABD0			DLI11	
   484 ABD0 48				PHA       				;ALLE REG.VOM STACK
   485 					
   486 ABD1 A9 7E			LDA #126
   487 ABD3 8D 0A D4			STA WSYNC
   488 ABD6 8D 1A D0			STA COLPF4
   489 ABD9 A9 E5			LDA #<DLI12 			;ZEIGER AUF NEUHE
   490 ABDB 8D 00 02			STA DLIVKTL  			;ROTINE.
   491 ABDE A9 AB			LDA #>DLI12
   492 ABE0 8D 01 02			STA DLIVKTH
   493 ABE3 68				PLA       				;RETURN F.INTERUPT.
   494 ABE4 40				RTI
   495 				;
   496 				; INTERUPT 12
   497 				;
   498 ABE5			DLI12	
   499 ABE5 48				PHA
   500 					
   501 ABE6 A9 7E			LDA #126
   502 ABE8 8D 0A D4			STA WSYNC
   503 ABEB 8D 1A D0			STA COLPF4
   504 ABEE A9 FA			LDA #<DLI13 			;ZEIGER AUF NEUHE
   505 ABF0 8D 00 02			STA DLIVKTL  			;ROTINE.
   506 ABF3 A9 AB			LDA #>DLI13
   507 ABF5 8D 01 02			STA DLIVKTH
   508 ABF8 68				PLA
   509 ABF9 40				RTI	
   510 				;
   511 				; INTERUPT 13
   512 				;
   513 ABFA			DLI13	
   514 ABFA 48				PHA
   515 ABFB A9 D8			LDA #216				; Green
   516 ABFD 8D 0A D4			STA WSYNC
   517 AC00 8D 1A D0			STA COLPF4
   518 AC03 A9 0F			LDA #<DLI14 			;ZEIGER AUF NEUHE
   519 AC05 8D 00 02			STA DLIVKTL  			;ROTINE.
   520 AC08 A9 AC			LDA #>DLI14
   521 AC0A 8D 01 02			STA DLIVKTH
   522 AC0D 68				PLA
   523 AC0E 40				RTI
   524 				;
   525 				; INTERUPT 14 
   526 				; This is the playfield, gr. 12
   527 				;
   528 AC0F			DLI14	
   529 AC0F 48				PHA
   530 AC10 8D 0A D4			STA WSYNC
   531 AC13 A9 2A			lda #42
   532 AC15 8D 16 D0			sta colpf0
   533 AC18 A9 14			lda #20
   534 AC1A 8D 17 D0			sta colpf1
   535 AC1D A9 16			lda #22
   536 AC1F 8D 18 D0			sta colpf2
   537 AC22 A9 CC			lda #204
   538 AC24 8D 19 D0			sta colpf3
   539 AC27 A9 0B			LDA #11
   540 AC29 8D 1A D0			STA COLPF4
   541 AC2C A9 48			LDA #>ZSATZ
   542 AC2E 8D 09 D4			STA ZEIGER
   543 AC31 A9 3D			LDA #<DLI15
   544 AC33 8D 00 02			STA DLIVKTL
   545 AC36 A9 AC			LDA #>DLI15
   546 AC38 8D 01 02			STA DLIVKTH
   547 AC3B 68				PLA
   548 AC3C 40				RTI 
   549 				;
   550 				; INTERUPT 15
   551 				;
   552 AC3D			DLI15	
   553 AC3D 48				PHA
   554 AC3E 8D 0A D4			STA WSYNC
   555 AC41 A9 0C			LDA #12
   556 AC43 8D 1A D0			STA COLPF4
   557 AC46 A9 32			LDA #50
   558 AC48 8D 18 D0			STA COLPF2
   559 AC4B A9 57			LDA #<DLI16
   560 AC4D 8D 00 02			STA DLIVKTL
   561 AC50 A9 AC			LDA #>DLI16
   562 AC52 8D 01 02			STA DLIVKTH
   563 AC55 68				PLA
   564 AC56 40				RTI
   565 				;
   566 				; INTERUPT 16
   567 				;
   568 AC57			DLI16	
   569 AC57 48				PHA
   570 AC58 8D 0A D4			STA WSYNC
   571 AC5B A9 0C			LDA #12
   572 AC5D 8D 18 D0			STA COLPF2
   573 AC60 8D 1A D0			STA COLPF4
   574 AC63 A9 E0			LDA #224
   575 AC65 8D 09 D4			STA ZEIGER
   576 AC68 A9 C1			LDA #<DLI1	 			;ZEIGER AUF NEUHE
   577 AC6A 8D 00 02			STA DLIVKTL  			;ROTINE.
   578 AC6D A9 AA			LDA #>DLI1
   579 AC6F 8D 01 02			STA DLIVKTH
   580 AC72 68				PLA
   581 AC73 40				RTI
   582 					
   583 					.endl					;08.05.2016 Local block to avoid double lables...
   584
   585 				; ANIMATIONSROTINE/LEGENDE FUER JACK
   586 				; 
   587 				;			   						BF'88
   588 				;-----------------------------------------
   589 				; Original:			1988
   590 				; †berarbeite: 		06.05.2016
   591 				; Original: 		BMEINE.ATR
   592 				; Original Source:	MAINPRG.SRC 
   593 				; IDE: ATMASSII (Hofacker)
   594 				;
   595 				; Every line after this commend remained 
   596 				; untouched and is written exactly as it
   597 				; was back in 1988 (except for the adjusted
   598 				; assembler directives)
   599 				;-----------------------------------------
   600 				; 
   601 				;
   602 AC74					.local		;08.05.2016 Local block to avoid double lables...
   603 						
   604 = 00CD			PHASEL	EQU 205 	;BEWEGUNGSPHASE LOW.
   605 = 00CE			PHASEH  EQU 206 	;BEWEGUNGSPHASE HI.
   606 = 00CF			PHASEL2	EQU 207    	; ''       P2 LOW
   607 = 00D0			PHASEH2 EQU 208    	; ''       P2 HIGU 203
   608 = 00CB			ADR		EQU 203    	;YPOS.JACK IN GR.13
   609 				;
   610 = 4800			PMTAB   EQU 18432 
   611 = D407			PMBASE  EQU 54279
   612 = D000			HPOSP1  EQU 53248
   613 = D001			HPOSP2	EQU 53249
   614 = 022F			SDMCTL	EQU 559
   615 = 026F			GPRIOR	EQU 623
   616 = D01D			GRACTL	EQU 53277
   617 = 4C00			PLAYER1	EQU PMTAB+1024
   618 = 4D00			PLAYER2	EQU PMTAB+1280
   619 = A000			BRAM 	EQU $A000
   620 				;
   621 = 0278			STICK0	EQU 632
   622 = 0284			TRIG0	EQU 644
   623 				;
   624 AC74					ORG $5800 	;FREI VERSCHIEBAR.
   625 5800-5C6D> 4C 0E 58			JMP START
   626 				;
   627 5803 00			RICHTUNG .byte 0     	;BEWEGUNGSRICHTUNG
   628 5804 2D			XPOS	 .byte 45    	;X POSITION
   629 5805 48			YPOS	 .byte 72    	;Y POSITION 
   630 5806 00			ZAELER	 .byte 0     	;16 BYTES GELESEN?
   631 5807 03			PRUEF    .byte 3     	;ZEICHEN DAS VON JACK †BERLAGERT WIRD
   632 				;
   633 5808 00 00		TEMP	.byte 0,0     ;TEMPONAEREGISTER.
   634 580A 64			DELAY	.byte 100   	;ZEIT FUER WAIT2
   635 580B 02			STEPNR	.byte 2     	;SCHRITTNUMMER.
   636 580C FF			ZEIT    .byte 255   	;ZEIT-WIELANGE KEINE
   637 580D 64				    .byte 100   	;HIBYTE ZEIT BEWEGUNG AUSGEFUERT	
   638 				;
   639 				; PMGRAFIK VORBEREITEN
   640 				;
   641 580E			START    
   642 580E A9 48			LDA #PMTAB/256
   643 5810 8D 07 D4			STA PMBASE
   644 5813 A9 3A			LDA #58
   645 5815 8D 2F 02			STA SDMCTL 	
   646 5818 AD 04 58			LDA XPOS
   647 581B 8D 00 D0			STA HPOSP1
   648 581E A9 03			LDA #3
   649 5820 8D 1D D0			STA GRACTL
   650 5823 A9 02			LDA #2
   651 5825 8D 6F 02			STA GPRIOR
   652 				;
   653 5828 A9 DD			LDA #221
   654 582A 8D C0 02			STA 704
   655 582D A9 FC			LDA #252
   656 582F 8D C1 02			STA 705
   657 				;
   658 5832 A2 00			LDX #0
   659 5834 A9 00		CLEAR	LDA #0
   660 5836 9D 00 4C			STA PLAYER1,X
   661 5839 9D 00 4D			STA PLAYER2,X
   662 583C E8				INX
   663 583D D0 F5			BNE CLEAR
   664 				;
   665 583F 20 EC 5A			JSR RECHTS    	;PLAYER DAS 
   666 5842 20 46 5B			JSR POKEIN    	;ERSTE MAL
   667 5845 20 75 5B			JSR POKEIN2   	;ZEIGEN.
   668 				;
   669 5848 A9 00			LDA #<BRAM
   670 584A 85 CB			STA ADR
   671 584C A9 A0			LDA #>BRAM
   672 584E 85 CC			STA ADR+1
   673 				;
   674 				; STICKABFRAGE
   675 				;
   676 5850			STICKABF	
   677 5850 AD 78 02			LDA STICK0
   678 5853 C9 0B			CMP #11
   679 5855 D0 08			BNE NOT11
   680 5857 A9 01			LDA #1      	;RICHTUNG=1-LINKS
   681 5859 8D 03 58			STA RICHTUNG
   682 585C 20 A8 58			JSR LEFT
   683 				; 
   684 585F			NOT11	
   685 585F C9 07			CMP #7
   686 5861 D0 08			BNE NOT7
   687 5863 A9 02			LDA #2      	;RICHTUNG=2-RECHTS
   688 5865 8D 03 58			STA RICHTUNG 
   689 5868 20 DD 58			JSR RIGHT
   690 				;
   691 586B			NOT7	
   692 586B C9 0E			CMP #14    
   693 586D D0 1F			BNE NOT14
   694 586F AD 07 58			LDA PRUEF   	;IST LEITERTEIL?
   695 5872 C9 06			CMP #6
   696 5874 D0 03			BNE NOTA
   697 5876 20 8D 59			JSR UP
   698 5879			NOTA	
   699 5879 C9 05			CMP #5
   700 587B D0 03			BNE NOTB
   701 587D 20 8D 59			JSR UP
   702 5880			NOTB
   703 5880 C9 07			CMP #7
   704 5882 D0 03			BNE NOTC
   705 5884 20 8D 59			JSR UP
   706 5887			NOTC	
   707 5887 C9 04			CMP #4
   708 5889 D0 03			BNE NOT14   	;KEINE LEITER.
   709 588B 20 8D 59			JSR UP      	;LEITER BESTEIGEN
   710 				;
   711 588E			NOT14	
   712 588E AD 84 02			LDA TRIG0   	;JUMP ?
   713 5891 C9 00			CMP #0
   714 5893 D0 03			BNE NOT0
   715 5895 20 E7 59			JSR JUMP    	;JUMP
   716 				;
   717 5898			NOT0	
   718 5898 AD 78 02			LDA STICK0
   719 589B C9 0F			CMP #15     	;KEINE STICKBEWEGUNG
   720 589D D0 03			BNE NOT15   
   721 589F 20 32 5A			JSR STAND
   722 				;
   723 58A2			NOT15	
   724 58A2 20 30 5C			JSR CHECK   
   725 58A5 4C 50 58			JMP STICKABF
   726 				;------------------------------------
   727 				; LINKSBEWEGUNG
   728 				; PHASE 1
   729 				;------------------------------------
   730 58A8			LEFT	
   731 58A8 20 30 5C			JSR CHECK
   732 58AB			LEFT2	
   733 58AB AD 0B 58			LDA STEPNR    	;SCHON 4    
   734 58AE C9 00			CMP #0        	;SCHRITTE NACH       
   735 58B0 D0 0B			BNE MOVELEFT  	;LINKS?
   736 				;
   737 58B2 A9 04			LDA #4
   738 58B4 8D 0B 58			STA STEPNR
   739 58B7 20 F0 5B			JSR SBCBRAM 	;BRAM.ADR.-1
   740 58BA 20 DB 5A			JSR LINKS   	;BITMUSTER F.L.
   741 58BD			MOVELEFT	
   742 58BD 20 46 5B			JSR POKEIN  	;PLAYER 1,
   743 58C0 20 75 5B			JSR POKEIN2 	;PLAYER 2 EINLESEN
   744 58C3 AE 04 58			LDX XPOS
   745 58C6 CA				DEX
   746 58C7 8E 04 58			STX XPOS    	;X POS PLAYER 1
   747 58CA 8E 00 D0			STX HPOSP1  	;UND 2 AENDERN.
   748 58CD 8E 01 D0			STX HPOSP2
   749 58D0 20 C0 5B			JSR WAIT
   750 58D3 20 A4 5B			JSR ADC16
   751 58D6 20 B2 5B			JSR ADC162  	;DATAADR.ERHOHEN.
   752 				;
   753 58D9 CE 0B 58			DEC STEPNR
   754 58DC 60				RTS
   755 				;------------------------------------
   756 				; RECHTSBEWEGUNG 
   757 				; PHASE 1
   758 				;------------------------------------
   759 58DD			RIGHT	
   760 58DD 20 30 5C			JSR CHECK
   761 58E0			RIGHT2	
   762 58E0 AD 0B 58			LDA STEPNR
   763 58E3 C9 04			CMP #4
   764 58E5 D0 0B			BNE MOVER 
   765 				;
   766 58E7 A9 00			LDA #0
   767 58E9 8D 0B 58			STA STEPNR
   768 58EC 20 D8 5B			JSR ADDBRAM
   769 58EF 20 EC 5A			JSR RECHTS   	;BITMUSTER F.R.
   770 58F2			MOVER	
   771 58F2 20 46 5B			JSR POKEIN
   772 58F5 20 75 5B			JSR POKEIN2
   773 58F8 AE 04 58			LDX XPOS
   774 58FB E8				INX
   775 58FC 8E 00 D0			STX HPOSP1
   776 58FF 8E 01 D0			STX HPOSP2
   777 5902 8E 04 58			STX XPOS
   778 5905 20 A4 5B			JSR ADC16
   779 5908 20 B2 5B			JSR ADC162
   780 590B 20 C0 5B			JSR WAIT
   781 590E EE 0B 58			INC STEPNR
   782 				;
   783 5911 60				RTS	
   784 				;------------------------------------
   785 				; STURZ
   786 				;------------------------------------
   787 5912			STURZ	
   788 5912 A2 00			LDX #0
   789 5914 A9 20			LDA #<$B220
   790 5916 85 CD			STA PHASEL
   791 5918 A9 B2			LDA #>$B220
   792 591A 85 CE			STA PHASEH
   793 591C A9 A0			LDA #<($B220+128)
   794 591E 85 CF			STA PHASEL2
   795 5920 A9 B2			LDA #>($B220+128)
   796 5922 85 D0			STA PHASEH2
   797 5924 AC 05 58			LDY YPOS
   798 				;
   799 5927			FALL	
   800 5927 AD 0A 58			LDA DELAY   	;ABFRAGE OB ZU 
   801 592A C9 00			CMP #0     		;TIEF GEFALLEN
   802 592C D0 03			BNE FALLOK
   803 592E 4C FD 5A			JMP TOD    		;ZU TIEF=TOD
   804 5931			FALLOK	
   805 5931 8C 08 58			STY TEMP		;X UND Y REG 
   806 5934 8E 09 58			STX TEMP+1 		;SICHERN.
   807 				;
   808 5937 20 46 5B			JSR POKEIN
   809 593A 20 75 5B			JSR POKEIN2
   810 593D 20 CB 5B			JSR WAIT2   
   811 5940 AC 08 58			LDY TEMP
   812 5943 C8				INY
   813 5944 8C 05 58			STY YPOS
   814 5947 AE 09 58			LDX TEMP+1
   815 594A E8				INX
   816 594B CE 0A 58			DEC DELAY  		;WARTEZEIT-1
   817 594E CE 0A 58			DEC DELAY
   818 5951 E0 08			CPX #8
   819 5953 D0 D2			BNE FALL
   820 				;
   821 5955 20 07 5C			JSR ADC40
   822 5958 20 30 5C			JSR CHECK
   823 				;
   824 595B A9 64			LDA #100   		;ENDE STURZ
   825 595D 8D 0A 58			STA DELAY
   826 				;	
   827 5960 A9 20			LDA #<$B220
   828 5962 85 CD			STA PHASEL
   829 5964 A9 B2			LDA #>$B220
   830 5966 85 CE			STA PHASEH
   831 5968 A9 A0			LDA #<($B220+128)
   832 596A 85 CF			STA PHASEL2
   833 596C A9 B2			LDA #>($B220+128)
   834 596E 85 D0			STA PHASEH2
   835 				;
   836 5970 A2 00			LDX #0
   837 5972			ENDST	
   838 5972 8E 08 58			STX TEMP
   839 5975 20 46 5B			JSR POKEIN
   840 5978 20 75 5B			JSR POKEIN2
   841 597B 20 A4 5B			JSR ADC16
   842 597E 20 B2 5B			JSR ADC162	
   843 5981 20 C0 5B			JSR WAIT
   844 5984 AE 08 58			LDX TEMP
   845 5987 E8				INX
   846 5988 E0 04			CPX #4
   847 598A D0 E6			BNE ENDST
   848 598C 60				RTS
   849 				;------------------------------------
   850 				; JACK AUF LEITER!!
   851 				;------------------------------------
   852 598D			UP	
   853 598D A2 00			LDX #0
   854 598F 8E 08 58			STX TEMP
   855 				;
   856 5992			UPMOVE	
   857 5992 A9 21			LDA #<$B321
   858 5994 85 CD			STA PHASEL	
   859 5996 A9 B3			LDA #>$B321
   860 5998 85 CE			STA PHASEH
   861 599A A9 A1			LDA #<($B321+128)
   862 599C 85 CF			STA PHASEL2
   863 599E A9 B3			LDA #>($B321+128)
   864 59A0 85 D0			STA PHASEH2
   865 				;
   866 59A2 20 46 5B			JSR POKEIN
   867 59A5 20 75 5B			JSR POKEIN2
   868 59A8 20 A4 5B			JSR ADC16
   869 59AB 20 B2 5B			JSR ADC162
   870 59AE 20 C0 5B			JSR WAIT
   871 59B1 20 46 5B			JSR POKEIN
   872 59B4 20 75 5B			JSR POKEIN2
   873 59B7 20 C0 5B			JSR WAIT
   874 59BA AE 05 58			LDX YPOS
   875 59BD CA				DEX
   876 59BE CA				DEX
   877 59BF 8E 05 58			STX YPOS	
   878 59C2 AE 08 58			LDX TEMP
   879 59C5 E8				INX
   880 59C6 8E 08 58			STX TEMP
   881 59C9 E0 04			CPX #4
   882 59CB D0 C5			BNE UPMOVE
   883 59CD 20 1C 5C			JSR SBC40
   884 				;
   885 59D0 A9 20			LDA #<$B220
   886 59D2 85 CD			STA PHASEL
   887 59D4 A9 B2			LDA #>$B220
   888 59D6 85 CE			STA PHASEH
   889 59D8 A9 A0			LDA #<($B220+128)
   890 59DA 85 CF			STA PHASEL2
   891 59DC A9 B2			LDA #>($B220+128)
   892 59DE 85 D0			STA PHASEH2
   893 59E0 20 46 5B			JSR POKEIN
   894 59E3 20 75 5B			JSR POKEIN2 
   895 59E6 60				RTS
   896 				;------------------------------------
   897 				; SPRUNG
   898 				;------------------------------------
   899 59E7			JUMP	
   900 59E7 A2 00			LDX #0
   901 59E9 8E 08 58			STX TEMP
   902 59EC A9 32			LDA #50      	;WARTESCHLEIFE
   903 59EE 8D 0A 58			STA DELAY    	;AUF 50
   904 59F1 A9 20			LDA #<$B220 	;STEHENDEN
   905 59F3 85 CD			STA PHASEL   	;PLAYER ZEIGEN.
   906 59F5 A9 B2			LDA #>$B220
   907 59F7 85 CE			STA PHASEH
   908 59F9 A9 A0			LDA #<($B220+128)
   909 59FB 85 CF			STA PHASEL2
   910 59FD A9 B2			LDA #>($B220+128)
   911 59FF 85 D0			STA PHASEH2
   912 5A01			JMPLOOP	
   913 5A01 AC 05 58			LDY YPOS     	;DER EIGENTLICHE
   914 5A04 88				DEY          	;SPRUNG.
   915 5A05 8C 05 58			STY YPOS     	;YPOS-1
   916 5A08 20 46 5B			JSR POKEIN   	;PLAYER 1 UND 2
   917 5A0B 20 75 5B			JSR POKEIN2  	;EINPOKEN
   918 5A0E 20 CB 5B			JSR WAIT2    	;WARTEN
   919 5A11 EE 0A 58			INC DELAY    	;WARTESHLEIFE 
   920 5A14 EE 0A 58			INC DELAY    	;WENIGER 3.
   921 5A17 EE 0A 58			INC DELAY
   922 5A1A AE 08 58			LDX TEMP
   923 5A1D E8				INX
   924 5A1E 8E 08 58			STX TEMP
   925 5A21 E0 18			CPX #24			; Changed this! This value means:
   926 5A23 D0 DC			BNE JMPLOOP		; Player jumps 3 times as high as hisn own boddy length
   927
   928 5A25 20 1C 5C			JSR SBC40     	;BRAM -40 3 
   929 5A28 20 1C 5C			JSR SBC40		
   930 5A2B 20 1C 5C			JSR SBC40
   931 5A2E 20 30 5C			JSR CHECK    	;WELCHES ZEICHEN?
   932 5A31 60				RTS	    		;FERTIG.		
   933 				;------------------------------------
   934 				; STEHENDEN JACK ZEIGEN
   935 				; (EINDRUCK DER DREHUNG ERWECKEN)
   936 				;------------------------------------
   937 5A32			STAND	
   938 5A32 A9 20			LDA #<$B220
   939 5A34 85 CD			STA PHASEL
   940 5A36 A9 B2			LDA #>$B220
   941 5A38 85 CE			STA PHASEH
   942 5A3A A9 A0			LDA #<($B220+128)
   943 5A3C 85 CF			STA PHASEL2
   944 5A3E A9 B2			LDA #>($B220+128)
   945 5A40 85 D0			STA PHASEH2
   946 				;
   947 5A42 20 46 5B			JSR POKEIN       	;STEHENDEN
   948 5A45 20 75 5B			JSR POKEIN2      	;JACK LESEN.
   949 				;
   950 5A48 CE 0C 58			DEC ZEIT
   951 5A4B AD 0C 58			LDA ZEIT
   952 5A4E C9 00			CMP #0	        	;ZEIT SCHON 0
   953 5A50 D0 0A			BNE RETURN       	;NEIN->RTS
   954 				;
   955 5A52 CE 0D 58			DEC ZEIT+1       	;HI BYTE ZEIT
   956 5A55 AD 0D 58			LDA ZEIT+1
   957 5A58 C9 00			CMP #0
   958 5A5A F0 03			BEQ WEITER	
   959 5A5C			RETURN	
   960 5A5C 4C D4 5A			JMP RIGHTLE      	;LINKS ODER
   961 					                    ;RECHTS?
   962 5A5F			WEITER	
   963 5A5F A9 FF			LDA #255
   964 5A61 8D 0C 58			STA ZEIT
   965 5A64 A9 64			LDA #100
   966 5A66 8D 0D 58			STA ZEIT+1
   967 				;
   968 5A69 A9 D1			LDA #<$B3D1
   969 5A6B 85 CD			STA PHASEL
   970 5A6D A9 B3			LDA #>$B3D1
   971 5A6F 85 CE			STA PHASEH
   972 5A71 A9 51			LDA #<($B3D1+128)
   973 5A73 85 CF			STA PHASEL2
   974 5A75 A9 B4			LDA #>($B3D1+128)
   975 5A77 85 D0			STA PHASEH2
   976 				;
   977 5A79 A9 00			LDA #0
   978 5A7B 8D 08 58			STA TEMP
   979 5A7E			TURN	
   980 5A7E AD 78 02			LDA STICK0    	;STICKBEWEGUNG?
   981 5A81 C9 0F			CMP #15
   982 5A83 D0 D7			BNE RETURN    	;JA->RETURN
   983 				;
   984 5A85 20 46 5B			JSR POKEIN
   985 5A88 20 75 5B			JSR POKEIN2
   986 5A8B 20 A4 5B			JSR ADC16
   987 5A8E 20 B2 5B			JSR ADC162
   988 5A91 20 C0 5B			JSR WAIT
   989 5A94 20 C0 5B			JSR WAIT
   990 5A97 20 C0 5B			JSR WAIT
   991 5A9A EE 08 58			INC TEMP
   992 5A9D AD 08 58			LDA TEMP
   993 5AA0 C9 07			CMP #7
   994 5AA2 D0 DA			BNE TURN		
   995 				;
   996 5AA4 AD 05 58			LDA YPOS       	;FRAGEZEICHEN
   997 5AA7 8D 09 58			STA TEMP+1     	;AUSGEBEN.
   998 5AAA E9 12			SBC #18
   999 5AAC 8D 05 58			STA YPOS
  1000 5AAF 20 46 5B			JSR POKEIN
  1001 5AB2 20 75 5B			JSR POKEIN2
  1002 				;
  1003 5AB5			W4STICK  
  1004 5AB5 AD 78 02			LDA STICK0     ;AUF STICK-
  1005 5AB8 C9 0F			CMP #15        ;BEWEGUNG
  1006 5ABA F0 F9			BEQ W4STICK    ;WARTEN!!
  1007 				;
  1008 5ABC A9 00			LDA #<1536
  1009 5ABE 85 CD			STA PHASEL
  1010 5AC0 85 CF			STA PHASEL2
  1011 5AC2 A9 06			LDA #>1536
  1012 5AC4 85 CE			STA PHASEH
  1013 5AC6 85 D0			STA PHASEH2
  1014 5AC8 20 46 5B			JSR POKEIN	
  1015 5ACB 20 75 5B			JSR POKEIN2
  1016 5ACE AD 09 58			LDA TEMP+1     ;RESTORE Y POS.
  1017 5AD1 8D 05 58			STA YPOS
  1018 				;
  1019 5AD4			RIGHTLE	
  1020 5AD4 AD 78 02			LDA STICK0
  1021 5AD7 C9 07			CMP #7         ;RECHTS?
  1022 5AD9 F0 11			BEQ RECHTS     ;JA!
  1023 				;
  1024 				; UNTERPROGRAMME UM BITMUSTER FUER
  1025 				; JACK RECHTS ODER LINKS ZU STELLEN
  1026 				;
  1027 5ADB			LINKS	
  1028 5ADB A9 00			LDA #<$B000  
  1029 5ADD 85 CD			STA PHASEL
  1030 5ADF A9 B0			LDA #>$B000
  1031 5AE1 85 CE			STA PHASEH
  1032 5AE3 A9 80			LDA #<($B000+128)
  1033 5AE5 85 CF			STA PHASEL2
  1034 5AE7 A9 B0			LDA #>($B000+128)
  1035 5AE9 85 D0			STA PHASEH2
  1036 5AEB 60				RTS
  1037 				;
  1038 5AEC			RECHTS	
  1039 5AEC A9 40			LDA #<($B000+64)
  1040 5AEE 85 CD			STA PHASEL
  1041 5AF0 A9 B0			LDA #>($B000+64)
  1042 5AF2 85 CE			STA PHASEH
  1043 5AF4 A9 C0			LDA #<($B000+192)
  1044 5AF6 85 CF			STA PHASEL2
  1045 5AF8 A9 B0			LDA #>($B000+192)
  1046 5AFA 85 D0			STA PHASEH2
  1047 5AFC 60				RTS	
  1048 				;------------------------------------
  1049 				; TOD!!
  1050 				; PRUEFEN OB GAME OVER
  1051 				;------------------------------------
  1052 5AFD A5 14		TOD	LDA $14
  1053 5AFF 8D C1 02			STA 705
  1054 5B02 8D C0 02			STA 704
  1055 5B05 8D C2 02			STA 706
  1056 5B08 D0 F3			BNE TOD
  1057 5B0A 60				RTS
  1058 				;------------------------------------
  1059 				; DIAMANT/GOLD GEFUNDEN
  1060 				;------------------------------------
  1061 5B0B			DIAMANT	
  1062 5B0B A0 00			LDY #0
  1063 5B0D A9 1E			LDA #30
  1064 5B0F 91 CB			STA (ADR),Y  	;SCORE AUSGEBEN
  1065 5B11 C8				INY
  1066 5B12 A9 1D			LDA #29
  1067 5B14 91 CB			STA (ADR),Y
  1068 5B16 C8				INY
  1069 5B17 91 CB			STA (ADR),Y		
  1070 5B19 4C 2A 5B			JMP OLD
  1071 				;
  1072 5B1C			GOLD	
  1073 5B1C A0 00			LDY #0
  1074 5B1E A9 1C			LDA #28       	;SCORE AUSGEBEN
  1075 5B20 91 CB			STA (ADR),Y
  1076 5B22 C8				INY
  1077 5B23 A9 1D			LDA #29
  1078 5B25 91 CB			STA (ADR),Y
  1079 5B27 C8				INY
  1080 5B28 91 CB			STA (ADR),Y
  1081 				;
  1082 5B2A 20 C0 5B		OLD	JSR WAIT    	;SCORE KURZ
  1083 5B2D 20 C0 5B			JSR WAIT   		; ZEIGEN.
  1084 5B30 20 C0 5B			JSR WAIT    	;(SPATER->SOUND).
  1085 5B33 A0 00			LDY #0     		;ALTEN BODEN
  1086 5B35 A9 38		CL	LDA #56     	;WIEDER 
  1087 5B37 91 CB			STA (ADR),Y 	;HERSTELLEN.
  1088 5B39 C8				INY
  1089 5B3A C0 03			CPY #3
  1090 5B3C D0 F7			BNE CL
  1091 				;
  1092 5B3E A9 38			LDA #56     	;RESTORE PRUEF.
  1093 5B40 8D 07 58			STA PRUEF
  1094 5B43 4C 50 58			JMP STICKABF
  1095 				;------------------------------------
  1096 				; AB HIER SUBROTINEN:
  1097 				; -POKEIN IN ZEIGT PLAYER 1 AUF SCHIRM
  1098 				; -POKEIN2 ZEIGT PLAYER 2
  1099 				; -ADC16  ERHOET BEWEGUNGSPHASE
  1100 				; -ADC162   ''         ''       PLY.2
  1101 				; -WAIT   WARTESCHLEIFE
  1102 				; -ADDBRAM ADDIERT X POS.JACK IN GR 13
  1103 				; -SBCBRAM SUBTRAHIERT X POS.JACK GR13
  1104 				; -CHECK   WELCHES ZEICHEN WIRD
  1105 				;          UEBERLAGERT?
  1106 				;-------------------------------------
  1107 5B46			POKEIN   
  1108 5B46 AE 05 58			LDX YPOS
  1109 5B49 A0 00			LDY #0
  1110 5B4B A9 00			LDA #0
  1111 5B4D 9D 00 4C			STA PLAYER1,X
  1112 5B50 E8				INX
  1113 5B51			POKE
  1114 5B51 B1 CD			LDA (PHASEL),Y
  1115 5B53 9D 00 4C			STA PLAYER1,X
  1116 5B56 C8				INY
  1117 5B57 E8				INX
  1118 5B58 EE 06 58			INC ZAELER
  1119 5B5B AD 06 58			LDA ZAELER
  1120 5B5E C9 10			CMP #16
  1121 5B60 D0 EF			BNE POKE	
  1122 5B62 A9 00			LDA #0
  1123 5B64 8D 06 58			STA ZAELER
  1124 				;
  1125 5B67 18				CLC        		;LETZTES BYTE
  1126 5B68 AD 05 58			LDA YPOS   		;PLAYER 1 LOESCHEN
  1127 5B6B 69 10			ADC #16
  1128 5B6D AA				TAX
  1129 5B6E E8				INX
  1130 5B6F A9 00			LDA #0
  1131 5B71 9D 00 4C			STA PLAYER1,X
  1132
  1133 5B74 60				RTS
  1134 				;
  1135 5B75			POKEIN2	
  1136 5B75 AE 05 58			LDX YPOS
  1137 5B78 A0 00			LDY #0
  1138 5B7A A9 00			LDA #0
  1139 5B7C 9D 00 4D			STA PLAYER2,X
  1140 5B7F E8				INX
  1141 5B80			POKE2	
  1142 5B80 B1 CF			LDA (PHASEL2),Y
  1143 5B82 9D 00 4D			STA PLAYER2,X
  1144 5B85 C8				INY
  1145 5B86 E8				INX
  1146 5B87 EE 06 58			INC ZAELER
  1147 5B8A AD 06 58			LDA ZAELER
  1148 5B8D C9 10			CMP #16
  1149 5B8F D0 EF			BNE POKE2
  1150 5B91 A9 00			LDA #0
  1151 5B93 8D 06 58			STA ZAELER
  1152 				;
  1153 5B96 18				CLC        		;LETZTES BYTE VON
  1154 5B97 AD 05 58			LDA YPOS   		;PLAYER 2 LOESCHEN
  1155 5B9A 69 10			ADC #16
  1156 5B9C AA				TAX
  1157 5B9D E8				INX
  1158 5B9E A9 00			LDA #0
  1159 5BA0 9D 00 4D			STA PLAYER2,X
  1160 				;
  1161 5BA3 60				RTS
  1162 				;------------------------------------
  1163 5BA4			ADC16	
  1164 5BA4 18				CLC	
  1165 5BA5 A5 CD			LDA PHASEL
  1166 5BA7 69 10			ADC #16
  1167 5BA9 85 CD			STA PHASEL
  1168 5BAB A5 CE			LDA PHASEH
  1169 5BAD 69 00			ADC #0
  1170 5BAF 85 CE			STA PHASEH
  1171 5BB1 60				RTS		
  1172 				;
  1173 5BB2			ADC162	
  1174 5BB2 18				CLC
  1175 5BB3 A5 CF			LDA PHASEL2
  1176 5BB5 69 10			ADC #16
  1177 5BB7 85 CF			STA PHASEL2
  1178 5BB9 A5 D0			LDA PHASEH2
  1179 5BBB 69 00			ADC #0
  1180 5BBD 85 D0			STA PHASEH2
  1181 5BBF 60				RTS
  1182 				;------------------------------------
  1183 5BC0			WAIT	
  1184 5BC0 A2 78			LDX #120
  1185 5BC2			LOOP	
  1186 5BC2 A0 78			LDY #120
  1187 5BC4			LOOP1	
  1188 5BC4 88				DEY
  1189 5BC5 D0 FD			BNE LOOP1
  1190 5BC7 CA				DEX 
  1191 5BC8 D0 F8			BNE LOOP
  1192 5BCA 60				RTS
  1193 				;------------------------------------
  1194 5BCB			WAIT2	
  1195 5BCB AE 0A 58			LDX DELAY  	;SPEZIELLE WARTE-
  1196 5BCE			LOOP12	
  1197 5BCE AC 0A 58			LDY DELAY  	;SCHLEIFE
  1198 5BD1			LOOP22   
  1199 5BD1 88				DEY        	;DIE WARTEZEIT IST
  1200 5BD2 D0 FD			BNE LOOP22 	;VARIABEL UEBER 
  1201 5BD4 CA				DEX        	;DELAY EINSTELLBAR.
  1202 5BD5 D0 F7			BNE LOOP12
  1203 5BD7 60				RTS
  1204 				;------------------------------------
  1205 				; ERHOEHEN DES BILDRAMZAELERS
  1206 				;------------------------------------
  1207 5BD8			ADDBRAM	
  1208 5BD8 18				CLC
  1209 5BD9 A0 00			LDY #0
  1210 5BDB A5 CB			LDA ADR
  1211 5BDD 69 01			ADC #1
  1212 5BDF 85 CB			STA ADR
  1213 5BE1 A5 CC			LDA ADR+1
  1214 5BE3 69 00			ADC #0
  1215 5BE5 85 CC			STA ADR+1
  1216 5BE7 B1 CB			LDA (ADR),Y
  1217 5BE9 8D 07 58			STA PRUEF
  1218 5BEC 8D 26 A0			STA BRAM+38
  1219 5BEF 60				RTS
  1220 				;------------------------------------
  1221 				; ERNIEDRIGE BILDZAELER
  1222 				;------------------------------------
  1223 5BF0			SBCBRAM	
  1224 5BF0 A0 00			LDY #0
  1225 5BF2 A5 CB			LDA ADR
  1226 5BF4 E9 01			SBC #1
  1227 5BF6 85 CB			STA ADR
  1228 5BF8 A5 CC			LDA ADR+1
  1229 5BFA E9 00			SBC #0
  1230 5BFC 85 CC			STA ADR+1
  1231 5BFE B1 CB			LDA (ADR),Y
  1232 5C00 8D 07 58			STA PRUEF
  1233 5C03 8D 26 A0			STA BRAM+38
  1234 5C06 60				RTS	
  1235 				;-------------------------------------
  1236 				; BILDZAEHLER UM 40 ERHOHEN
  1237 				;-------------------------------------
  1238 5C07			ADC40	
  1239 5C07 18				CLC
  1240 5C08 A0 00			LDY #0
  1241 5C0A A5 CB			LDA ADR
  1242 5C0C 69 28			ADC #40
  1243 5C0E 85 CB			STA ADR
  1244 5C10 A5 CC			LDA ADR+1
  1245 5C12 69 00			ADC #0
  1246 5C14 85 CC			STA ADR+1
  1247 5C16 B1 CB			LDA (ADR),Y
  1248 5C18 8D 07 58			STA PRUEF
  1249 5C1B 60				RTS
  1250 				;------------------------------------
  1251 				; BILDZAHLER UM 40 ERNIEDRIGEN.
  1252 				;------------------------------------
  1253 5C1C			SBC40	
  1254 5C1C A0 00			LDY #0
  1255 5C1E A5 CB			LDA ADR
  1256 5C20 E9 28			SBC #40
  1257 5C22 85 CB			STA ADR
  1258 5C24 A5 CC			LDA ADR+1
  1259 5C26 E9 00			SBC #0
  1260 5C28 85 CC			STA ADR+1
  1261 5C2A B1 CB			LDA (ADR),Y
  1262 5C2C 8D 07 58			STA PRUEF
  1263 5C2F 60				RTS
  1264 				;------------------------------------
  1265 				; PRUEFE WELCHES ZEICHEN UEBERLAGERT
  1266 				; WIRD.
  1267 				;------------------------------------
  1268 5C30			CHECK	
  1269 5C30 AD 07 58			LDA PRUEF   	;LOCH?
  1270 5C33 C9 00			CMP #0
  1271 5C35 D0 06			BNE NOSTURZ 	;KEIN LOCH   
  1272 5C37 20 12 59			JSR STURZ   	;JA JACK SUERZT
  1273 5C3A 4C 50 58			JMP STICKABF
  1274 				;
  1275 5C3D			NOSTURZ	
  1276 5C3D C9 01			CMP #1      	;MAUERTEIL LINKS?
  1277 5C3F D0 06			BNE NOMLEFT 	;NEIN.
  1278 5C41 4C AB 58			JMP LEFT2   	;JA.
  1279 5C44 4C 50 58			JMP STICKABF
  1280 				;
  1281 5C47			NOMLEFT	
  1282 5C47 C9 02			CMP #2      	;MAUERTEIL RECHTS?
  1283 5C49 D0 06			BNE NMRIGHT 	;NEIN.
  1284 5C4B 4C E0 58			JMP RIGHT2  	;JA.
  1285 5C4E 4C 50 58			JMP STICKABF
  1286 				;
  1287 5C51			NMRIGHT	
  1288 5C51 C9 48			CMP #72     	;WIRD EIN ZEICHEN
  1289 5C53 D0 03			BNE NOT72   	;DAS TOEDLICH
  1290 5C55 4C FD 5A			JMP TOD    		;WIRKT UEBER-
  1291 5C58			NOT72	
  1292 5C58 C9 77			CMP #119    	;LAGERT?
  1293 5C5A D0 03			BNE NOT19   
  1294 5C5C 4C FD 5A			JMP TOD
  1295 				;
  1296 5C5F			NOT19	
  1297 5C5F C9 1B			CMP #27     	;DIAMANT ODER 
  1298 5C61 D0 03			BNE NOT27   	;GOLD?
  1299 5C63 4C 0B 5B			JMP DIAMANT
  1300 5C66			NOT27	
  1301 5C66 C9 39			CMP #57
  1302 5C68 D0 03			BNE NOT57
  1303 5C6A 4C 1C 5B			JMP GOLD
  1304 				;
  1305 5C6D			NOT57	
  1306 5C6D 60				RTS
  1307 					.endl			;08.05.2016 Local block to avoid double lables...
  1308 				;
  1309 				;
  1310 5C6E				.local
  1311 					
  1312 				;------------------
  1313 				; Main Charakter animation data
  1314 				;
  1315 				; Source:	C_Meine.atr
  1316 				; Dump of:	IMAGES.ATM
  1317
  1318 5C6E				org $B000-6
  1319
  1320 AFFA-B709> FF FF 00 B0 + .byte	$ff,$ff,$00,$b0,$09,$b7,$00,$00,$10
  1321 B003 1C 0C 1C 08 08 0C + .byte	$1c,$0c,$1c,$08,$08,$0c,$0c,$18
  1322 B00B 08 08 14 00 00 00 + .byte	$08,$08,$14,$00,$00,$00,$20,$38
  1323 B013 38 18 08 08 0C 02 + .byte	$38,$18,$08,$08,$0c,$02,$0c,$08
  1324 B01B 1C 04 04 00 00 00 + .byte	$1c,$04,$04,$00,$00,$00,$00,$10
  1325 B023 1C 0C 1C 08 08 0C + .byte	$1c,$0c,$1c,$08,$08,$0c,$04,$18
  1326 B02B 08 1C 10 00 00 00 + .byte	$08,$1c,$10,$00,$00,$00,$10,$1c
  1327 B033 0C 1C 08 08 0C 0C + .byte	$0c,$1c,$08,$08,$0c,$0c,$18,$08
  1328 B03B 08 04 00 00 00 00 + .byte	$08,$04,$00,$00,$00,$00,$00,$08
  1329 B043 38 30 38 10 10 30 + .byte	$38,$30,$38,$10,$10,$30,$30,$18
  1330 B04B 10 10 28 00 00 00 + .byte	$10,$10,$28,$00,$00,$00,$08,$38
  1331 B053 30 38 10 10 30 20 + .byte	$30,$38,$10,$10,$30,$20,$18,$10
  1332 B05B 38 08 00 00 00 00 + .byte	$38,$08,$00,$00,$00,$00,$00,$04
  1333 B063 1C 1C 18 10 10 30 + .byte	$1c,$1c,$18,$10,$10,$30,$40,$30
  1334 B06B 10 38 20 20 00 00 + .byte	$10,$38,$20,$20,$00,$00,$08,$38
  1335 B073 30 38 10 10 30 30 + .byte	$30,$38,$10,$10,$30,$30,$18,$10
  1336 B07B 10 20 00 00 00 00 + .byte	$10,$20,$00,$00,$00,$00,$3c,$06
  1337 B083 02 02 00 00 08 84 + .byte	$02,$02,$00,$00,$08,$84,$f4,$38
  1338 B08B 20 00 00 12 36 78 + .byte	$20,$00,$00,$12,$36,$78,$0c,$04
  1339 B093 04 00 00 08 44 7E + .byte	$04,$00,$00,$08,$44,$7e,$1c,$10
  1340 B09B 00 30 00 0C 00 00 + .byte	$00,$30,$00,$0c,$00,$00,$3c,$06
  1341 B0A3 02 02 00 00 08 84 + .byte	$02,$02,$00,$00,$08,$84,$fc,$38
  1342 B0AB 20 00 0C 10 30 3C + .byte	$20,$00,$0c,$10,$30,$3c,$06,$02
  1343 B0B3 02 00 00 08 84 F4 + .byte	$02,$00,$00,$08,$84,$f4,$38,$20
  1344 B0BB 00 30 02 06 00 00 + .byte	$00,$30,$02,$06,$00,$00,$3c,$60
  1345 B0C3 40 40 00 00 10 21 + .byte	$40,$40,$00,$00,$10,$21,$2f,$1c
  1346 B0CB 04 00 00 48 6C 3C + .byte	$04,$00,$00,$48,$6c,$3c,$60,$40
  1347 B0D3 40 00 00 10 21 3F + .byte	$40,$00,$00,$10,$21,$3f,$1c,$04
  1348 B0DB 00 30 08 0C 00 00 + .byte	$00,$30,$08,$0c,$00,$00,$1e,$30
  1349 B0E3 20 20 00 00 10 22 + .byte	$20,$20,$00,$00,$10,$22,$7e,$38
  1350 B0EB 08 00 0C 00 30 3C + .byte	$08,$00,$0c,$00,$30,$3c,$60,$40
  1351 B0F3 40 00 00 10 21 2F + .byte	$40,$00,$00,$10,$21,$2f,$1c,$04
  1352 B0FB 00 0C 40 60 00 00 + .byte	$00,$0c,$40,$60,$00,$00,$00,$00
  1353 B103 00 00 00 00 00 00 + .byte	$00,$00,$00,$00,$00,$00,$00,$00
  1354 B10B 00 00 00 00 00 00 + .byte	$00,$00,$00,$00,$00,$00,$00,$00
  1355 B113 00 00 00 00 00 00 + .byte	$00,$00,$00,$00,$00,$00,$00,$00
  1356 B11B 00 00 00 00 00 00 + .byte	$00,$00,$00,$00,$00,$00,$00,$00
  1357 B123 00 00 00 00 00 00 + .byte	$00,$00,$00,$00,$00,$00,$00,$00
  1358 B12B 00 00 00 00 00 00 + .byte	$00,$00,$00,$00,$00,$00,$00,$00
  1359 B133 00 00 00 00 00 00 + .byte	$00,$00,$00,$00,$00,$00,$00,$00
  1360 B13B 00 00 00 00 00 00 + .byte	$00,$00,$00,$00,$00,$00,$00,$00
  1361 B143 00 00 00 00 00 00 + .byte	$00,$00,$00,$00,$00,$00,$00,$00
  1362 B14B 00 00 00 00 00 00 + .byte	$00,$00,$00,$00,$00,$00,$00,$00
  1363 B153 00 00 00 00 00 00 + .byte	$00,$00,$00,$00,$00,$00,$00,$00
  1364 B15B 00 00 00 00 00 00 + .byte	$00,$00,$00,$00,$00,$00,$00,$00
  1365 B163 00 00 00 00 00 00 + .byte	$00,$00,$00,$00,$00,$00,$00,$00
  1366 B16B 00 00 00 00 00 00 + .byte	$00,$00,$00,$00,$00,$00,$00,$00
  1367 B173 00 00 00 00 00 00 + .byte	$00,$00,$00,$00,$00,$00,$00,$00
  1368 B17B 00 00 00 00 00 00 + .byte	$00,$00,$00,$00,$00,$00,$00,$00
  1369 B183 00 00 00 00 00 00 + .byte	$00,$00,$00,$00,$00,$00,$00,$00
  1370 B18B 00 00 00 00 00 00 + .byte	$00,$00,$00,$00,$00,$00,$00,$00
  1371 B193 00 00 00 00 00 00 + .byte	$00,$00,$00,$00,$00,$00,$00,$00
  1372 B19B 00 00 00 00 00 00 + .byte	$00,$00,$00,$00,$00,$00,$00,$00
  1373 B1A3 00 00 00 00 00 00 + .byte	$00,$00,$00,$00,$00,$00,$00,$00
  1374 B1AB 00 00 00 00 00 00 + .byte	$00,$00,$00,$00,$00,$00,$00,$00
  1375 B1B3 00 00 00 00 00 00 + .byte	$00,$00,$00,$00,$00,$00,$00,$00
  1376 B1BB 00 00 00 00 00 00 + .byte	$00,$00,$00,$00,$00,$00,$00,$00
  1377 B1C3 00 00 00 00 00 00 + .byte	$00,$00,$00,$00,$00,$00,$00,$00
  1378 B1CB 00 00 00 00 00 00 + .byte	$00,$00,$00,$00,$00,$00,$00,$00
  1379 B1D3 00 00 00 00 00 00 + .byte	$00,$00,$00,$00,$00,$00,$00,$00
  1380 B1DB 00 00 00 00 00 00 + .byte	$00,$00,$00,$00,$00,$00,$00,$00
  1381 B1E3 00 00 00 00 00 00 + .byte	$00,$00,$00,$00,$00,$00,$00,$00
  1382 B1EB 00 00 00 00 00 00 + .byte	$00,$00,$00,$00,$00,$00,$00,$00
  1383 B1F3 00 00 00 00 00 00 + .byte	$00,$00,$00,$00,$00,$00,$00,$00
  1384 B1FB 00 00 00 00 00 00 + .byte	$00,$00,$00,$00,$00,$00,$00,$00
  1385 B203 00 00 00 00 00 00 + .byte	$00,$00,$00,$00,$00,$00,$00,$00
  1386 B20B 00 00 00 00 00 00 + .byte	$00,$00,$00,$00,$00,$00,$00,$00
  1387 B213 00 00 00 00 00 00 + .byte	$00,$00,$00,$00,$00,$00,$00,$00
  1388 B21B 00 00 00 00 00 00 + .byte	$00,$00,$00,$00,$00,$00,$00,$00
  1389 B223 10 38 28 10 10 FE + .byte	$10,$38,$28,$10,$10,$fe,$10,$10
  1390 B22B 10 28 00 00 00 00 + .byte	$10,$28,$00,$00,$00,$00,$00,$00
  1391 B233 10 38 28 10 D6 38 + .byte	$10,$38,$28,$10,$d6,$38,$10,$10
  1392 B23B 10 28 00 00 00 00 + .byte	$10,$28,$00,$00,$00,$00,$00,$00
  1393 B243 38 38 28 92 54 38 + .byte	$38,$38,$28,$92,$54,$38,$10,$10
  1394 B24B 10 28 00 00 00 00 + .byte	$10,$28,$00,$00,$00,$00,$00,$00
  1395 B253 10 38 38 50 50 3E + .byte	$10,$38,$38,$50,$50,$3e,$10,$10
  1396 B25B 10 28 00 00 00 00 + .byte	$10,$28,$00,$00,$00,$00,$00,$00
  1397 B263 00 00 00 00 00 00 + .byte	$00,$00,$00,$00,$00,$00,$00,$00
  1398 B26B 00 00 00 00 00 00 + .byte	$00,$00,$00,$00,$00,$00,$00,$00
  1399 B273 00 00 00 00 00 00 + .byte	$00,$00,$00,$00,$00,$00,$00,$00
  1400 B27B 00 00 00 00 00 00 + .byte	$00,$00,$00,$00,$00,$00,$00,$00
  1401 B283 00 00 00 00 00 00 + .byte	$00,$00,$00,$00,$00,$00,$00,$00
  1402 B28B 00 00 00 00 00 00 + .byte	$00,$00,$00,$00,$00,$00,$00,$00
  1403 B293 00 00 00 00 00 00 + .byte	$00,$00,$00,$00,$00,$00,$00,$00
  1404 B29B 00 00 00 00 00 00 + .byte	$00,$00,$00,$00,$00,$00,$38,$7c
  1405 B2A3 44 00 06 02 02 EF + .byte	$44,$00,$06,$02,$02,$ef,$02,$03
  1406 B2AB 00 00 24 28 64 00 + .byte	$00,$00,$24,$28,$64,$00,$38,$7c
  1407 B2B3 44 02 02 02 C7 2A + .byte	$44,$02,$02,$02,$c7,$2a,$03,$00
  1408 B2BB 00 00 44 28 44 00 + .byte	$00,$00,$44,$28,$44,$00,$38,$7c
  1409 B2C3 46 02 02 83 46 2B + .byte	$46,$02,$02,$83,$46,$2b,$00,$00
  1410 B2CB 00 00 44 28 44 00 + .byte	$00,$00,$44,$28,$44,$00,$38,$7c
  1411 B2D3 44 00 06 42 42 2F + .byte	$44,$00,$06,$42,$42,$2f,$02,$03
  1412 B2DB 00 00 44 28 44 00 + .byte	$00,$00,$44,$28,$44,$00,$00,$00
  1413 B2E3 00 00 00 00 00 00 + .byte	$00,$00,$00,$00,$00,$00,$00,$00
  1414 B2EB 00 00 00 00 00 00 + .byte	$00,$00,$00,$00,$00,$00,$00,$00
  1415 B2F3 00 00 00 00 00 00 + .byte	$00,$00,$00,$00,$00,$00,$00,$00
  1416 B2FB 00 00 00 00 00 00 + .byte	$00,$00,$00,$00,$00,$00,$00,$00
  1417 B303 00 00 00 00 00 00 + .byte	$00,$00,$00,$00,$00,$00,$00,$00
  1418 B30B 00 00 00 00 00 00 + .byte	$00,$00,$00,$00,$00,$00,$00,$00
  1419 B313 00 00 00 00 00 00 + .byte	$00,$00,$00,$00,$00,$00,$00,$00
  1420 B31B 00 00 00 00 00 00 + .byte	$00,$00,$00,$00,$00,$00,$00,$00
  1421 B323 00 1C 1C 0A 0A 1C + .byte	$00,$1c,$1c,$0a,$0a,$1c,$28,$28
  1422 B32B 08 04 04 00 00 00 + .byte	$08,$04,$04,$00,$00,$00,$00,$00
  1423 B333 00 1C 1C 28 28 1C + .byte	$00,$1c,$1c,$28,$28,$1c,$0a,$0a
  1424 B33B 08 10 10 00 00 00 + .byte	$08,$10,$10,$00,$00,$00,$00,$00
  1425 B343 00 1C 1C 0A 0A 1C + .byte	$00,$1c,$1c,$0a,$0a,$1c,$28,$28
  1426 B34B 08 04 04 00 00 00 + .byte	$08,$04,$04,$00,$00,$00,$00,$00
  1427 B353 00 00 00 00 00 00 + .byte	$00,$00,$00,$00,$00,$00,$00,$00
  1428 B35B 00 00 00 00 00 00 + .byte	$00,$00,$00,$00,$00,$00,$00,$00
  1429 B363 00 00 00 00 00 00 + .byte	$00,$00,$00,$00,$00,$00,$00,$00
  1430 B36B 00 00 00 00 00 00 + .byte	$00,$00,$00,$00,$00,$00,$00,$00
  1431 B373 00 00 00 00 00 00 + .byte	$00,$00,$00,$00,$00,$00,$00,$00
  1432 B37B 00 00 00 00 00 00 + .byte	$00,$00,$00,$00,$00,$00,$00,$00
  1433 B383 00 00 00 00 00 00 + .byte	$00,$00,$00,$00,$00,$00,$00,$00
  1434 B38B 00 00 00 00 00 00 + .byte	$00,$00,$00,$00,$00,$00,$00,$00
  1435 B393 00 00 00 00 00 00 + .byte	$00,$00,$00,$00,$00,$00,$00,$00
  1436 B39B 00 00 00 00 00 00 + .byte	$00,$00,$00,$00,$00,$00,$1c,$3e
  1437 B3A3 3E 22 00 02 02 14 + .byte	$3e,$22,$00,$02,$02,$14,$20,$20
  1438 B3AB 00 10 30 04 06 00 + .byte	$00,$10,$30,$04,$06,$00,$1c,$3e
  1439 B3B3 3E 22 00 20 20 14 + .byte	$3e,$22,$00,$20,$20,$14,$02,$02
  1440 B3BB 00 04 06 10 30 00 + .byte	$00,$04,$06,$10,$30,$00,$1c,$3e
  1441 B3C3 3E 22 00 02 02 14 + .byte	$3e,$22,$00,$02,$02,$14,$20,$20
  1442 B3CB 00 10 30 04 06 00 + .byte	$00,$10,$30,$04,$06,$00,$00,$00
  1443 B3D3 00 10 38 28 10 10 + .byte	$00,$10,$38,$28,$10,$10,$38,$54
  1444 B3DB 52 10 28 00 00 00 + .byte	$52,$10,$28,$00,$00,$00,$00,$00
  1445 B3E3 00 10 38 28 10 10 + .byte	$00,$10,$38,$28,$10,$10,$38,$54
  1446 B3EB 32 50 28 00 00 00 + .byte	$32,$50,$28,$00,$00,$00,$00,$00
  1447 B3F3 00 10 38 28 10 10 + .byte	$00,$10,$38,$28,$10,$10,$38,$54
  1448 B3FB 32 50 28 00 00 00 + .byte	$32,$50,$28,$00,$00,$00,$00,$00
  1449 B403 00 10 38 28 10 10 + .byte	$00,$10,$38,$28,$10,$10,$38,$54
  1450 B40B 32 50 28 00 00 00 + .byte	$32,$50,$28,$00,$00,$00,$00,$00
  1451 B413 00 10 38 38 10 10 + .byte	$00,$10,$38,$38,$10,$10,$38,$54
  1452 B41B 52 10 28 00 00 00 + .byte	$52,$10,$28,$00,$00,$00,$00,$00
  1453 B423 00 10 38 28 10 10 + .byte	$00,$10,$38,$28,$10,$10,$38,$54
  1454 B42B 52 10 28 00 00 00 + .byte	$52,$10,$28,$00,$00,$00,$00,$00
  1455 B433 00 10 38 38 10 10 + .byte	$00,$10,$38,$38,$10,$10,$38,$54
  1456 B43B 52 10 28 00 00 00 + .byte	$52,$10,$28,$00,$00,$00,$3e,$63
  1457 B443 C1 81 81 81 83 82 + .byte	$c1,$81,$81,$81,$83,$82,$82,$44
  1458 B44B 24 18 00 18 00 30 + .byte	$24,$18,$00,$18,$00,$30,$00,$38
  1459 B453 7C 44 00 03 02 02 + .byte	$7c,$44,$00,$03,$02,$02,$2a,$46
  1460 B45B 42 06 00 28 28 6C + .byte	$42,$06,$00,$28,$28,$6c,$00,$38
  1461 B463 7C 44 00 00 01 01 + .byte	$7c,$44,$00,$00,$01,$01,$2a,$46
  1462 B46B 26 42 06 28 28 6C + .byte	$26,$42,$06,$28,$28,$6c,$00,$38
  1463 B473 7C 44 00 00 01 01 + .byte	$7c,$44,$00,$00,$01,$01,$2a,$46
  1464 B47B 22 44 04 28 68 0C + .byte	$22,$44,$04,$28,$68,$0c,$00,$38
  1465 B483 7C 44 00 03 02 02 + .byte	$7c,$44,$00,$03,$02,$02,$2a,$46
  1466 B48B 22 46 00 28 28 6C + .byte	$22,$46,$00,$28,$28,$6c,$00,$38
  1467 B493 7C 44 00 03 02 02 + .byte	$7c,$44,$00,$03,$02,$02,$2a,$46
  1468 B49B 42 06 00 28 28 6C + .byte	$42,$06,$00,$28,$28,$6c,$00,$38
  1469 B4A3 7C 44 00 03 02 02 + .byte	$7c,$44,$00,$03,$02,$02,$2a,$46
  1470 B4AB 42 06 00 28 28 6C + .byte	$42,$06,$00,$28,$28,$6c,$00,$38
  1471 B4B3 7C 44 00 03 02 02 + .byte	$7c,$44,$00,$03,$02,$02,$2a,$46
  1472 B4BB 42 06 00 28 28 6C + .byte	$42,$06,$00,$28,$28,$6c,$3e,$63
  1473 B4C3 C1 B9 8D 99 93 92 + .byte	$c1,$b9,$8d,$99,$93,$92,$82,$54
  1474 B4CB 34 18 00 18 00 30 + .byte	$34,$18,$00,$18,$00,$30,$00,$00
  1475 B4D3 00 00 00 00 00 00 + .byte	$00,$00,$00,$00,$00,$00,$00,$00
  1476 B4DB 00 00 00 00 00 00 + .byte	$00,$00,$00,$00,$00,$00,$00,$00
  1477 B4E3 00 00 00 00 00 00 + .byte	$00,$00,$00,$00,$00,$00,$00,$00
  1478 B4EB 00 00 00 00 00 00 + .byte	$00,$00,$00,$00,$00,$00,$00,$00
  1479 B4F3 00 00 00 00 00 00 + .byte	$00,$00,$00,$00,$00,$00,$00,$00
  1480 B4FB 00 00 00 00 00 00 + .byte	$00,$00,$00,$00,$00,$00,$00,$00
  1481 B503 00 00 00 00 00 00 + .byte	$00,$00,$00,$00,$00,$00,$00,$00
  1482 B50B 00 00 00 00 00 00 + .byte	$00,$00,$00,$00,$00,$00,$00,$00
  1483 B513 00 00 00 00 00 00 + .byte	$00,$00,$00,$00,$00,$00,$00,$00
  1484 B51B 00 00 00 00 00 00 + .byte	$00,$00,$00,$00,$00,$00,$00,$00
  1485 B523 00 00 00 00 00 00 + .byte	$00,$00,$00,$00,$00,$00,$00,$00
  1486 B52B 00 00 00 00 00 00 + .byte	$00,$00,$00,$00,$00,$00,$00,$00
  1487 B533 00 00 00 00 00 00 + .byte	$00,$00,$00,$00,$00,$00,$00,$00
  1488 B53B 00 00 00 00 00 00 + .byte	$00,$00,$00,$00,$00,$00,$00,$00
  1489 B543 00 00 00 00 00 00 + .byte	$00,$00,$00,$00,$00,$00,$00,$00
  1490 B54B 00 00 00 00 00 00 + .byte	$00,$00,$00,$00,$00,$00,$00,$00
  1491 B553 00 00 00 00 00 00 + .byte	$00,$00,$00,$00,$00,$00,$00,$00
  1492 B55B 00 00 00 00 00 00 + .byte	$00,$00,$00,$00,$00,$00,$00,$00
  1493 B563 00 00 00 00 00 00 + .byte	$00,$00,$00,$00,$00,$00,$00,$00
  1494 B56B 00 00 00 00 00 00 + .byte	$00,$00,$00,$00,$00,$00,$00,$00
  1495 B573 00 00 00 00 00 00 + .byte	$00,$00,$00,$00,$00,$00,$00,$00
  1496 B57B 00 00 00 00 00 00 + .byte	$00,$00,$00,$00,$00,$00,$00,$00
  1497 B583 00 00 00 00 00 00 + .byte	$00,$00,$00,$00,$00,$00,$00,$00
  1498 B58B 00 00 00 00 00 00 + .byte	$00,$00,$00,$00,$00,$00,$00,$00
  1499 B593 00 00 00 00 00 00 + .byte	$00,$00,$00,$00,$00,$00,$00,$00
  1500 B59B 00 00 00 00 00 00 + .byte	$00,$00,$00,$00,$00,$00,$00,$00
  1501 B5A3 00 00 00 00 00 00 + .byte	$00,$00,$00,$00,$00,$00,$00,$00
  1502 B5AB 00 00 00 00 00 00 + .byte	$00,$00,$00,$00,$00,$00,$00,$00
  1503 B5B3 00 00 00 00 00 00 + .byte	$00,$00,$00,$00,$00,$00,$00,$00
  1504 B5BB 00 00 00 00 00 00 + .byte	$00,$00,$00,$00,$00,$00,$00,$00
  1505 B5C3 00 00 00 00 00 00 + .byte	$00,$00,$00,$00,$00,$00,$00,$00
  1506 B5CB 00 00 00 00 00 00 + .byte	$00,$00,$00,$00,$00,$00,$00,$00
  1507 B5D3 00 00 00 00 00 00 + .byte	$00,$00,$00,$00,$00,$00,$00,$00
  1508 B5DB 00 00 00 00 00 00 + .byte	$00,$00,$00,$00,$00,$00,$00,$00
  1509 B5E3 00 00 00 00 00 00 + .byte	$00,$00,$00,$00,$00,$00,$00,$00
  1510 B5EB 00 00 00 00 00 00 + .byte	$00,$00,$00,$00,$00,$00,$00,$00
  1511 B5F3 00 00 00 00 00 00 + .byte	$00,$00,$00,$00,$00,$00,$00,$00
  1512 B5FB 00 00 00 00 00 00 + .byte	$00,$00,$00,$00,$00,$00,$00,$00
  1513 B603 00 00 00 00 00 00 + .byte	$00,$00,$00,$00,$00,$00,$00,$00
  1514 B60B 00 00 00 00 00 00 + .byte	$00,$00,$00,$00,$00,$00,$00,$00
  1515 B613 00 00 00 00 00 00 + .byte	$00,$00,$00,$00,$00,$00,$00,$00
  1516 B61B 00 00 00 00 00 00 + .byte	$00,$00,$00,$00,$00,$00,$00,$00
  1517 B623 00 00 00 00 00 00 + .byte	$00,$00,$00,$00,$00,$00,$00,$00
  1518 B62B 00 00 00 00 00 00 + .byte	$00,$00,$00,$00,$00,$00,$00,$00
  1519 B633 00 00 00 00 00 00 + .byte	$00,$00,$00,$00,$00,$00,$00,$00
  1520 B63B 00 00 00 00 00 00 + .byte	$00,$00,$00,$00,$00,$00,$00,$00
  1521 B643 00 00 00 00 00 00 + .byte	$00,$00,$00,$00,$00,$00,$00,$00
  1522 B64B 00 00 00 00 00 00 + .byte	$00,$00,$00,$00,$00,$00,$00,$00
  1523 B653 00 00 00 00 00 00 + .byte	$00,$00,$00,$00,$00,$00,$00,$00
  1524 B65B 00 00 00 00 00 00 + .byte	$00,$00,$00,$00,$00,$00,$00,$00
  1525 B663 00 00 00 00 00 00 + .byte	$00,$00,$00,$00,$00,$00,$00,$00
  1526 B66B 00 00 00 00 00 00 + .byte	$00,$00,$00,$00,$00,$00,$00,$00
  1527 B673 00 00 00 00 00 00 + .byte	$00,$00,$00,$00,$00,$00,$00,$00
  1528 B67B 00 00 00 00 00 00 + .byte	$00,$00,$00,$00,$00,$00,$00,$00
  1529 B683 00 00 00 24 00 42 + .byte	$00,$00,$00,$24,$00,$42,$00,$00
  1530 B68B 00 00 00 00 00 00 + .byte	$00,$00,$00,$00,$00,$00,$00,$00
  1531 B693 00 00 00 00 00 00 + .byte	$00,$00,$00,$00,$00,$00,$00,$00
  1532 B69B 00 00 00 00 00 00 + .byte	$00,$00,$00,$00,$00,$00,$00,$00
  1533 B6A3 00 00 00 00 00 00 + .byte	$00,$00,$00,$00,$00,$00,$00,$00
  1534 B6AB 00 00 00 00 00 00 + .byte	$00,$00,$00,$00,$00,$00,$00,$00
  1535 B6B3 00 00 00 00 00 00 + .byte	$00,$00,$00,$00,$00,$00,$00,$00
  1536 B6BB 00 00 00 00 00 00 + .byte	$00,$00,$00,$00,$00,$00,$00,$00
  1537 B6C3 00 00 00 00 00 00 + .byte	$00,$00,$00,$00,$00,$00,$00,$00
  1538 B6CB 00 00 00 00 00 00 + .byte	$00,$00,$00,$00,$00,$00,$00,$00
  1539 B6D3 00 00 00 00 00 00 + .byte	$00,$00,$00,$00,$00,$00,$00,$00
  1540 B6DB 00 00 00 00 00 00 + .byte	$00,$00,$00,$00,$00,$00,$00,$00
  1541 B6E3 00 00 00 00 00 00 + .byte	$00,$00,$00,$00,$00,$00,$00,$00
  1542 B6EB 00 00 00 00 00 00 + .byte	$00,$00,$00,$00,$00,$00,$00,$00
  1543 B6F3 00 00 00 00 00 00 + .byte	$00,$00,$00,$00,$00,$00,$00,$00
  1544 B6FB 00 00 00 00 00 00 + .byte	$00,$00,$00,$00,$00,$00,$00,$00
  1545 B703 00 00 00 00 00 00 + .byte	$00,$00,$00,$00,$00,$00,$00
  1546 					.endl
  1547 					
  1548 				; Background Gfx.
  1549 				;
  1550
  1551 B70A			buffer
  1552 B70A				org $1000
  1553
  1554 1000-2F3F> 00 00 00 00 + .byte $00,$00,$00,$00,$00,$00,$00,$00,$00,$00,$00,$00,$00,$00,$00,$00
  1555 1010 00 00 00 00 00 00 + .byte $00,$00,$00,$00,$00,$00,$00,$00,$00,$00,$00,$00,$00,$00,$00,$00
  1556 1020 00 00 00 00 00 00 + .byte $00,$00,$00,$00,$00,$00,$00,$00,$00,$00,$00,$00,$00,$00,$00,$00
  1557 1030 00 00 00 00 00 00 + .byte $00,$00,$00,$00,$00,$00,$00,$00,$00,$00,$00,$00,$00,$00,$00,$00
  1558 1040 00 00 00 00 00 00 + .byte $00,$00,$00,$00,$00,$00,$00,$00,$00,$00,$00,$00,$00,$00,$00,$00
  1559 1050 00 00 00 00 00 00 + .byte $00,$00,$00,$00,$00,$00,$00,$00,$00,$00,$00,$00,$00,$00,$00,$00
  1560 1060 00 00 00 00 00 00 + .byte $00,$00,$00,$00,$00,$00,$00,$00,$00,$00,$00,$00,$00,$00,$00,$00
  1561 1070 00 00 00 00 00 00 + .byte $00,$00,$00,$00,$00,$00,$00,$00,$00,$00,$00,$00,$00,$00,$00,$00
  1562 1080 00 00 00 00 00 00 + .byte $00,$00,$00,$00,$00,$00,$00,$00,$00,$00,$00,$00,$00,$00,$00,$00
  1563 1090 00 00 00 00 00 00 + .byte $00,$00,$00,$00,$00,$00,$00,$00,$00,$00,$00,$00,$00,$00,$00,$00
  1564 10A0 00 00 00 00 00 00 + .byte $00,$00,$00,$00,$00,$00,$00,$00,$00,$00,$00,$00,$00,$00,$00,$00
  1565 10B0 00 00 00 00 00 00 + .byte $00,$00,$00,$00,$00,$00,$00,$00,$00,$00,$00,$00,$00,$00,$00,$00
  1566 10C0 00 00 00 00 00 00 + .byte $00,$00,$00,$00,$00,$00,$00,$00,$00,$00,$00,$00,$00,$00,$00,$00
  1567 10D0 00 00 00 00 00 00 + .byte $00,$00,$00,$00,$00,$00,$00,$00,$00,$00,$00,$00,$00,$00,$00,$00
  1568 10E0 00 00 00 00 00 00 + .byte $00,$00,$00,$00,$00,$00,$00,$00,$00,$00,$00,$00,$00,$00,$00,$00
  1569 10F0 00 00 00 00 00 00 + .byte $00,$00,$00,$00,$00,$00,$00,$03,$00,$00,$00,$00,$00,$00,$00,$00
  1570 1100 00 00 00 00 00 00 + .byte $00,$00,$00,$00,$00,$00,$00,$00,$00,$00,$00,$00,$00,$00,$00,$00
  1571 1110 00 00 00 00 00 00 + .byte $00,$00,$00,$00,$00,$00,$00,$00,$00,$00,$00,$00,$00,$00,$00,$02
  1572 1120 80 00 00 00 00 00 + .byte $80,$00,$00,$00,$00,$00,$00,$00,$00,$00,$00,$00,$00,$00,$00,$00
  1573 1130 00 00 00 00 00 00 + .byte $00,$00,$00,$00,$00,$00,$00,$00,$00,$00,$00,$00,$00,$00,$00,$00
  1574 1140 00 00 00 00 00 00 + .byte $00,$00,$00,$00,$00,$00,$00,$0B,$C0,$00,$00,$00,$00,$00,$00,$00
  1575 1150 00 00 00 00 00 00 + .byte $00,$00,$00,$00,$00,$00,$00,$00,$00,$00,$00,$00,$00,$00,$00,$00
  1576 1160 00 00 00 00 00 00 + .byte $00,$00,$00,$00,$00,$00,$00,$00,$00,$00,$00,$00,$00,$00,$00,$2F
  1577 1170 F0 00 00 00 00 00 + .byte $F0,$00,$00,$00,$00,$00,$00,$00,$00,$00,$00,$00,$00,$00,$00,$00
  1578 1180 00 00 00 00 00 00 + .byte $00,$00,$00,$00,$00,$00,$00,$02,$80,$00,$00,$00,$00,$00,$00,$00
  1579 1190 00 00 00 00 00 00 + .byte $00,$00,$00,$00,$00,$00,$00,$2F,$F0,$00,$00,$00,$00,$00,$00,$00
  1580 11A0 00 02 80 00 00 00 + .byte $00,$02,$80,$00,$00,$00,$00,$00,$00,$00,$00,$00,$00,$00,$00,$2B
  1581 11B0 E8 00 00 00 00 00 + .byte $E8,$00,$00,$00,$00,$00,$00,$00,$00,$00,$00,$00,$00,$00,$00,$BE
  1582 11C0 FC 00 00 00 00 00 + .byte $FC,$00,$00,$00,$00,$00,$00,$00,$00,$0B,$F0,$00,$00,$00,$00,$00
  1583 11D0 00 00 00 00 00 00 + .byte $00,$00,$00,$00,$00,$00,$00,$BF,$FE,$80,$00,$00,$00,$00,$00,$00
  1584 11E0 00 00 00 00 00 00 + .byte $00,$00,$00,$00,$00,$00,$02,$BF,$FC,$00,$00,$00,$00,$00,$00,$00
  1585 11F0 00 0B FC 00 00 00 + .byte $00,$0B,$FC,$00,$00,$00,$00,$00,$00,$00,$00,$00,$00,$00,$2A,$FB
  1586 1200 BF E8 00 00 00 00 + .byte $BF,$E8,$00,$00,$00,$00,$00,$00,$00,$00,$00,$00,$00,$00,$0B,$FB
  1587 1210 FF 00 00 00 00 00 + .byte $FF,$00,$00,$00,$00,$00,$00,$00,$00,$2F,$BC,$00,$00,$00,$00,$00
  1588 1220 00 00 00 00 00 00 + .byte $00,$00,$00,$00,$00,$00,$7F,$FF,$FF,$EE,$80,$00,$00,$00,$00,$00
  1589 1230 00 00 00 00 00 00 + .byte $00,$00,$00,$00,$00,$00,$2B,$FF,$EF,$00,$00,$00,$00,$00,$00,$00
  1590 1240 00 2F FF 00 00 00 + .byte $00,$2F,$FF,$00,$00,$00,$00,$01,$40,$00,$00,$00,$00,$05,$5F,$FB
  1591 1250 FF FF E0 00 00 00 + .byte $FF,$FF,$E0,$00,$00,$00,$00,$00,$00,$00,$00,$00,$00,$00,$3F,$BF
  1592 1260 FF C0 00 00 00 00 + .byte $FF,$C0,$00,$00,$00,$00,$00,$00,$00,$AF,$BF,$C0,$00,$00,$00,$15
  1593 1270 54 00 00 00 00 05 + .byte $54,$00,$00,$00,$00,$05,$57,$FF,$FE,$FF,$FA,$00,$00,$00,$00,$00
  1594 1280 00 00 00 00 00 00 + .byte $00,$00,$00,$00,$00,$00,$BF,$FE,$FF,$C0,$00,$00,$00,$00,$00,$00
  1595 1290 02 BF FE F0 00 00 + .byte $02,$BF,$FE,$F0,$00,$00,$00,$15,$54,$00,$00,$00,$00,$15,$57,$FF
  1596 12A0 FF FF FF 80 00 00 + .byte $FF,$FF,$FF,$80,$00,$00,$00,$00,$00,$00,$00,$00,$00,$00,$FF,$FF
  1597 12B0 FF F0 00 00 00 00 + .byte $FF,$F0,$00,$00,$00,$00,$00,$00,$0A,$FB,$EF,$FC,$00,$00,$15,$55
  1598 12C0 55 00 00 00 05 55 + .byte $55,$00,$00,$00,$05,$55,$57,$7F,$FF,$FF,$D5,$14,$00,$00,$00,$00
  1599 12D0 00 00 00 00 00 02 + .byte $00,$00,$00,$00,$00,$02,$FF,$BF,$FF,$F0,$00,$00,$00,$00,$00,$00
  1600 12E0 0B DF FF FF 00 01 + .byte $0B,$DF,$FF,$FF,$00,$01,$55,$55,$55,$40,$00,$00,$55,$55,$57,$7F
  1601 12F0 FD 55 54 54 00 00 + .byte $FD,$55,$54,$54,$00,$00,$00,$00,$00,$00,$00,$00,$00,$0F,$FF,$FF
  1602 1300 FF FC 00 00 10 00 + .byte $FF,$FC,$00,$00,$10,$00,$00,$00,$15,$57,$FF,$FF,$F0,$15,$55,$55
  1603 1310 55 40 00 01 55 55 + .byte $55,$40,$00,$01,$55,$55,$55,$5D,$55,$55,$54,$54,$00,$00,$00,$00
  1604 1320 00 00 00 00 00 15 + .byte $00,$00,$00,$00,$00,$15,$55,$7F,$F5,$55,$00,$01,$55,$40,$00,$00
  1605 1330 55 57 57 FF 50 55 + .byte $55,$57,$57,$FF,$50,$55,$55,$55,$55,$50,$00,$05,$55,$55,$55,$55
  1606 1340 55 55 51 55 00 00 + .byte $55,$55,$51,$55,$00,$00,$00,$00,$00,$00,$00,$00,$01,$15,$55,$55
  1607 1350 55 55 00 55 55 50 + .byte $55,$55,$00,$55,$55,$50,$00,$01,$55,$55,$57,$D5,$51,$55,$55,$55
  1608 1360 55 50 00 05 55 55 + .byte $55,$50,$00,$05,$55,$55,$55,$55,$55,$55,$45,$55,$40,$00,$00,$00
  1609 1370 00 00 00 00 05 15 + .byte $00,$00,$00,$00,$05,$15,$55,$55,$55,$55,$05,$55,$55,$55,$50,$05
  1610 1380 55 55 55 55 51 55 + .byte $55,$55,$55,$55,$51,$55,$55,$55,$55,$54,$00,$05,$55,$55,$55,$55
  1611 1390 55 55 45 55 40 00 + .byte $55,$55,$45,$55,$40,$00,$00,$00,$00,$00,$00,$00,$15,$15,$55,$55
  1612 13A0 55 55 45 55 55 55 + .byte $55,$55,$45,$55,$55,$55,$54,$05,$55,$55,$55,$55,$45,$55,$55,$55
  1613 13B0 55 54 55 51 55 55 + .byte $55,$54,$55,$51,$55,$55,$55,$55,$55,$55,$15,$55,$50,$00,$00,$00
  1614 13C0 00 00 A0 00 15 45 + .byte $00,$00,$A0,$00,$15,$45,$55,$55,$55,$55,$15,$55,$55,$55,$55,$15
  1615 13D0 55 55 55 55 45 55 + .byte $55,$55,$55,$55,$45,$55,$55,$55,$55,$51,$55,$51,$55,$55,$55,$55
  1616 13E0 55 54 55 55 50 00 + .byte $55,$54,$55,$55,$50,$00,$00,$00,$00,$02,$A8,$00,$15,$45,$55,$55
  1617 13F0 55 54 55 55 55 55 + .byte $55,$54,$55,$55,$55,$55,$55,$15,$55,$55,$55,$55,$15,$55,$55,$55
  1618 1400 55 51 55 54 55 55 + .byte $55,$51,$55,$54,$55,$55,$55,$55,$55,$51,$55,$55,$54,$00,$00,$00
  1619 1410 00 00 A0 00 55 45 + .byte $00,$00,$A0,$00,$55,$45,$55,$55,$55,$51,$55,$55,$55,$55,$55,$45
  1620 1420 55 55 55 55 15 55 + .byte $55,$55,$55,$55,$15,$55,$55,$55,$55,$45,$55,$55,$15,$55,$55,$55
  1621 1430 55 51 55 55 54 00 + .byte $55,$51,$55,$55,$54,$00,$00,$00,$00,$00,$A0,$00,$55,$45,$55,$55
  1622 1440 55 45 55 55 55 55 + .byte $55,$45,$55,$55,$55,$55,$55,$45,$55,$55,$55,$55,$15,$55,$55,$55
  1623 1450 55 15 55 55 45 55 + .byte $55,$15,$55,$55,$45,$55,$55,$55,$55,$45,$55,$55,$55,$00,$00,$00
  1624 1460 00 00 A0 01 55 45 + .byte $00,$00,$A0,$01,$55,$45,$55,$55,$55,$45,$55,$55,$55,$55,$55,$51
  1625 1470 55 55 55 54 55 55 + .byte $55,$55,$55,$54,$55,$55,$55,$55,$54,$55,$55,$55,$45,$55,$55,$55
  1626 1480 55 15 55 55 55 40 + .byte $55,$15,$55,$55,$55,$40,$00,$00,$00,$00,$F0,$05,$55,$45,$55,$55
  1627 1490 55 15 55 55 55 55 + .byte $55,$15,$55,$55,$55,$55,$55,$51,$55,$55,$55,$54,$55,$55,$55,$55
  1628 14A0 54 55 55 55 51 55 + .byte $54,$55,$55,$55,$51,$55,$55,$55,$55,$15,$55,$55,$55,$40,$00,$00
  1629 14B0 00 03 FC 15 55 51 + .byte $00,$03,$FC,$15,$55,$51,$55,$55,$54,$55,$55,$55,$55,$55,$55,$54
  1630 14C0 55 55 55 51 55 55 + .byte $55,$55,$55,$51,$55,$55,$55,$55,$51,$55,$55,$55,$54,$55,$55,$55
  1631 14D0 54 55 55 55 55 53 + .byte $54,$55,$55,$55,$55,$53,$C0,$00,$00,$0F,$FF,$55,$55,$51,$55,$55
  1632 14E0 51 55 55 55 55 55 + .byte $51,$55,$55,$55,$55,$55,$55,$54,$55,$55,$55,$51,$55,$55,$55,$55
  1633 14F0 45 55 55 55 55 15 + .byte $45,$55,$55,$55,$55,$15,$55,$55,$55,$55,$55,$55,$55,$57,$F0,$00
  1634 1500 00 0F FF D5 55 51 + .byte $00,$0F,$FF,$D5,$55,$51,$55,$55,$45,$55,$55,$55,$55,$55,$55,$55
  1635 1510 15 55 55 51 55 55 + .byte $15,$55,$55,$51,$55,$55,$55,$55,$15,$55,$55,$55,$55,$15,$55,$55
  1636 1520 51 55 55 55 55 5F + .byte $51,$55,$55,$55,$55,$5F,$FC,$00,$00,$3F,$FF,$F5,$55,$51,$55,$55
  1637 1530 55 55 55 55 55 55 + .byte $55,$55,$55,$55,$55,$55,$55,$55,$15,$55,$55,$45,$55,$55,$55,$55
  1638 1540 15 55 55 55 55 45 + .byte $15,$55,$55,$55,$55,$45,$55,$55,$55,$55,$55,$55,$55,$5F,$FF,$00
  1639 1550 00 FF FF F5 55 55 + .byte $00,$FF,$FF,$F5,$55,$55,$55,$55,$15,$55,$55,$55,$55,$55,$55,$55
  1640 1560 45 55 55 45 55 55 + .byte $45,$55,$55,$45,$55,$55,$55,$54,$55,$55,$55,$55,$55,$55,$55,$55
  1641 1570 55 55 55 55 55 7F + .byte $55,$55,$55,$55,$55,$7F,$FF,$00,$03,$FF,$FF,$FD,$55,$51,$55,$55
  1642 1580 55 55 55 55 55 55 + .byte $55,$55,$55,$55,$55,$55,$55,$55,$45,$55,$55,$15,$55,$55,$55,$55
  1643 1590 55 55 55 55 55 51 + .byte $55,$55,$55,$55,$55,$51,$55,$55,$15,$55,$55,$55,$55,$FF,$FF,$C0
  1644 15A0 03 FF FF FD 55 51 + .byte $03,$FF,$FF,$FD,$55,$51,$55,$51,$55,$55,$55,$55,$55,$55,$55,$55
  1645 15B0 55 55 55 15 55 55 + .byte $55,$55,$55,$15,$55,$55,$55,$45,$55,$55,$55,$55,$55,$51,$55,$55
  1646 15C0 55 55 55 55 55 FF + .byte $55,$55,$55,$55,$55,$FF,$FF,$C0,$00,$2A,$AA,$95,$55,$55,$55,$41
  1647 15D0 55 55 55 55 55 55 + .byte $55,$55,$55,$55,$55,$55,$55,$55,$51,$55,$55,$55,$55,$55,$55,$55
  1648 15E0 55 55 55 55 55 55 + .byte $55,$55,$55,$55,$55,$55,$55,$55,$55,$55,$55,$55,$55,$6A,$AA,$00
  1649 15F0 00 2A AA 95 55 51 + .byte $00,$2A,$AA,$95,$55,$51,$55,$05,$55,$55,$55,$55,$55,$55,$55,$55
  1650 1600 55 55 55 55 55 55 + .byte $55,$55,$55,$55,$55,$55,$55,$55,$55,$55,$55,$55,$55,$55,$15,$55
  1651 1610 55 55 55 55 55 6A + .byte $55,$55,$55,$55,$55,$6A,$AA,$00,$00,$2A,$0A,$95,$55,$55,$55,$55
  1652 1620 55 55 55 55 55 55 + .byte $55,$55,$55,$55,$55,$55,$55,$55,$54,$55,$51,$55,$55,$55,$51,$55
  1653 1630 55 55 55 55 55 55 + .byte $55,$55,$55,$55,$55,$55,$55,$55,$55,$55,$55,$55,$55,$6A,$AA,$00
  1654 1640 00 2A 0A 95 55 55 + .byte $00,$2A,$0A,$95,$55,$55,$55,$55,$55,$55,$55,$55,$55,$55,$55,$55
  1655 1650 54 55 55 55 55 55 + .byte $54,$55,$55,$55,$55,$55,$55,$55,$55,$55,$55,$55,$55,$55,$55,$55
  1656 1660 55 55 55 55 55 6A + .byte $55,$55,$55,$55,$55,$6A,$0A,$00,$00,$2A,$AA,$95,$55,$51,$51,$55
  1657 1670 55 55 55 55 55 55 + .byte $55,$55,$55,$55,$55,$55,$55,$55,$55,$55,$55,$55,$55,$54,$55,$55
  1658 1680 55 55 55 55 55 55 + .byte $55,$55,$55,$55,$55,$55,$45,$55,$55,$55,$55,$55,$55,$6A,$0A,$00
  1659 1690 00 2A AA 95 55 55 + .byte $00,$2A,$AA,$95,$55,$55,$55,$55,$55,$55,$55,$55,$55,$55,$55,$55
  1660 16A0 55 45 45 55 55 55 + .byte $55,$45,$45,$55,$55,$55,$55,$55,$55,$55,$55,$55,$55,$55,$55,$55
  1661 16B0 55 55 55 55 55 6A + .byte $55,$55,$55,$55,$55,$6A,$AA,$00,$00,$6A,$0A,$95,$55,$55,$55,$55
  1662 16C0 55 55 55 55 55 55 + .byte $55,$55,$55,$55,$55,$55,$55,$55,$55,$55,$55,$55,$55,$55,$55,$55
  1663 16D0 55 55 55 55 55 55 + .byte $55,$55,$55,$55,$55,$55,$55,$55,$55,$55,$55,$55,$55,$6A,$AA,$00
  1664 16E0 01 6A 0A 95 55 55 + .byte $01,$6A,$0A,$95,$55,$55,$55,$55,$55,$55,$55,$55,$55,$55,$55,$55
  1665 16F0 55 54 55 55 55 55 + .byte $55,$54,$55,$55,$55,$55,$55,$55,$55,$55,$55,$55,$55,$55,$55,$55
  1666 1700 55 55 55 55 55 6A + .byte $55,$55,$55,$55,$55,$6A,$AA,$00,$01,$6A,$AA,$96,$A9,$55,$6A,$95
  1667 1710 56 A9 55 6A 95 56 + .byte $56,$A9,$55,$6A,$95,$56,$A9,$55,$6A,$95,$56,$A9,$55,$6A,$95,$55
  1668 1720 AA 55 56 A9 55 5A + .byte $AA,$55,$56,$A9,$55,$5A,$A5,$55,$5A,$A5,$55,$6A,$95,$6A,$AA,$00
  1669 1730 05 6A AA 96 A9 55 + .byte $05,$6A,$AA,$96,$A9,$55,$6A,$95,$56,$A9,$55,$6A,$95,$56,$A9,$55
  1670 1740 6A 95 56 A9 55 6A + .byte $6A,$95,$56,$A9,$55,$6A,$95,$55,$AA,$55,$56,$A9,$55,$5A,$A5,$55
  1671 1750 5A A5 55 6A 95 6A + .byte $5A,$A5,$55,$6A,$95,$6A,$AA,$00,$15,$6A,$0A,$96,$A9,$55,$6A,$95
  1672 1760 56 A9 55 6A 95 56 + .byte $56,$A9,$55,$6A,$95,$56,$A9,$55,$6A,$95,$56,$A9,$55,$6A,$95,$55
  1673 1770 AA 55 56 A9 55 5A + .byte $AA,$55,$56,$A9,$55,$5A,$A5,$55,$5A,$A5,$55,$6A,$95,$68,$0A,$00
  1674 1780 15 6A 0A 96 A9 55 + .byte $15,$6A,$0A,$96,$A9,$55,$6A,$95,$56,$A9,$55,$6A,$95,$56,$A9,$55
  1675 1790 6A 95 56 A9 55 6A + .byte $6A,$95,$56,$A9,$55,$6A,$95,$55,$AA,$55,$56,$A9,$55,$5A,$A5,$55
  1676 17A0 5A A5 55 6A 95 68 + .byte $5A,$A5,$55,$6A,$95,$68,$0A,$00,$15,$6A,$AA,$AA,$AA,$AA,$AA,$AA
  1677 17B0 AA AA AA AA AA AA + .byte $AA,$AA,$AA,$AA,$AA,$AA,$AA,$AA,$AA,$AA,$AA,$AA,$AA,$AA,$AA,$AA
  1678 17C0 AA AA AA AA AA AA + .byte $AA,$AA,$AA,$AA,$AA,$AA,$AA,$AA,$AA,$AA,$AA,$AA,$AA,$A8,$0A,$00
  1679 17D0 55 6A AA AA AA AA + .byte $55,$6A,$AA,$AA,$AA,$AA,$AA,$AA,$AA,$AA,$AA,$AA,$AA,$AA,$AA,$AA
  1680 17E0 AA AA AA AA AA AA + .byte $AA,$AA,$AA,$AA,$AA,$AA,$AA,$AA,$AA,$AA,$AA,$AA,$AA,$AA,$AA,$AA
  1681 17F0 AA AA AA AA AA A8 + .byte $AA,$AA,$AA,$AA,$AA,$A8,$0A,$00,$55,$6A,$AA,$AA,$AA,$AA,$AA,$AA
  1682 1800 AA AA AA AA AA AA + .byte $AA,$AA,$AA,$AA,$AA,$AA,$AA,$AA,$AA,$AA,$AA,$AA,$AA,$AA,$AA,$AA
  1683 1810 AA AA AA AA AA AA + .byte $AA,$AA,$AA,$AA,$AA,$AA,$AA,$AA,$AA,$AA,$AA,$AA,$AA,$A8,$0A,$00
  1684 1820 55 6A AA AA AA AA + .byte $55,$6A,$AA,$AA,$AA,$AA,$AA,$AA,$AA,$AA,$AA,$AA,$AA,$AA,$AA,$AA
  1685 1830 AA AA AA AA AA AA + .byte $AA,$AA,$AA,$AA,$AA,$AA,$AA,$AA,$AA,$AA,$AA,$AA,$AA,$AA,$AA,$AA
  1686 1840 AA AA AA AA AA A8 + .byte $AA,$AA,$AA,$AA,$AA,$A8,$0A,$00,$00,$00,$00,$00,$00,$00,$00,$00
  1687 1850 00 00 00 00 00 00 + .byte $00,$00,$00,$00,$00,$00,$00,$00,$00,$00,$00,$00,$00,$00,$00,$00
  1688 1860 00 00 00 00 00 00 + .byte $00,$00,$00,$00,$00,$00,$00,$00,$00,$00,$00,$00,$00,$00,$00,$00
  1689 1870 00 00 00 00 00 00 + .byte $00,$00,$00,$00,$00,$00,$00,$00,$00,$00,$00,$00,$00,$00,$00,$00
  1690 1880 00 00 00 00 00 00 + .byte $00,$00,$00,$00,$00,$00,$00,$00,$00,$00,$00,$00,$00,$00,$00,$00
  1691 1890 00 00 00 00 00 00 + .byte $00,$00,$00,$00,$00,$00,$00,$00,$00,$00,$00,$00,$00,$00,$00,$00
  1692 18A0 00 00 00 00 00 00 + .byte $00,$00,$00,$00,$00,$00,$00,$00,$00,$00,$00,$00,$00,$00,$00,$00
  1693 18B0 00 00 00 00 00 00 + .byte $00,$00,$00,$00,$00,$00,$00,$00,$00,$00,$00,$00,$00,$00,$00,$00
  1694 18C0 00 00 00 00 00 00 + .byte $00,$00,$00,$00,$00,$00,$00,$00,$00,$00,$00,$00,$00,$00,$00,$00
  1695 18D0 00 00 00 00 00 00 + .byte $00,$00,$00,$00,$00,$00,$00,$00,$00,$00,$00,$00,$00,$00,$00,$00
  1696 18E0 00 00 00 00 00 00 + .byte $00,$00,$00,$00,$00,$00,$00,$00,$00,$00,$00,$00,$00,$00,$00,$00
  1697 18F0 00 00 00 00 00 00 + .byte $00,$00,$00,$00,$00,$00,$00,$00,$00,$00,$00,$00,$00,$00,$00,$00
  1698 1900 00 00 00 00 00 00 + .byte $00,$00,$00,$00,$00,$00,$00,$00,$00,$00,$00,$00,$00,$00,$00,$00
  1699 1910 00 00 00 00 00 00 + .byte $00,$00,$00,$00,$00,$00,$00,$00,$00,$00,$00,$00,$00,$00,$00,$00
  1700 1920 00 00 00 00 00 00 + .byte $00,$00,$00,$00,$00,$00,$00,$00,$00,$00,$00,$00,$00,$00,$00,$00
  1701 1930 00 00 00 00 00 00 + .byte $00,$00,$00,$00,$00,$00,$00,$00,$00,$00,$00,$00,$00,$00,$00,$00
  1702 1940 00 00 00 00 00 00 + .byte $00,$00,$00,$00,$00,$00,$00,$00,$00,$00,$00,$00,$00,$00,$00,$00
  1703 1950 00 00 00 00 00 00 + .byte $00,$00,$00,$00,$00,$00,$00,$00,$00,$00,$00,$00,$00,$00,$00,$00
  1704 1960 00 00 00 00 00 00 + .byte $00,$00,$00,$00,$00,$00,$00,$00,$00,$00,$00,$00,$00,$00,$00,$00
  1705 1970 00 00 00 00 00 00 + .byte $00,$00,$00,$00,$00,$00,$00,$00,$00,$00,$00,$00,$00,$00,$00,$00
  1706 1980 00 00 00 00 00 00 + .byte $00,$00,$00,$00,$00,$00,$00,$00,$00,$00,$00,$00,$00,$00,$00,$00
  1707 1990 00 00 00 00 00 00 + .byte $00,$00,$00,$00,$00,$00,$00,$00,$00,$00,$00,$00,$00,$00,$00,$00
  1708 19A0 00 00 00 00 00 00 + .byte $00,$00,$00,$00,$00,$00,$00,$00,$00,$00,$00,$00,$00,$00,$00,$00
  1709 19B0 00 00 00 00 00 00 + .byte $00,$00,$00,$00,$00,$00,$00,$00,$00,$00,$00,$00,$00,$00,$00,$00
  1710 19C0 00 00 00 00 00 00 + .byte $00,$00,$00,$00,$00,$00,$00,$00,$00,$00,$00,$00,$00,$00,$00,$00
  1711 19D0 00 00 00 00 00 00 + .byte $00,$00,$00,$00,$00,$00,$00,$00,$00,$00,$00,$00,$00,$00,$00,$00
  1712 19E0 00 00 00 00 00 00 + .byte $00,$00,$00,$00,$00,$00,$00,$00,$00,$00,$00,$00,$00,$00,$00,$00
  1713 19F0 00 00 00 00 00 00 + .byte $00,$00,$00,$00,$00,$00,$00,$00,$00,$00,$00,$00,$00,$00,$00,$00
  1714 1A00 00 00 00 00 00 00 + .byte $00,$00,$00,$00,$00,$00,$00,$00,$00,$00,$00,$00,$00,$00,$00,$00
  1715 1A10 00 00 00 00 00 00 + .byte $00,$00,$00,$00,$00,$00,$00,$00,$00,$00,$00,$00,$00,$00,$00,$00
  1716 1A20 00 00 00 00 00 00 + .byte $00,$00,$00,$00,$00,$00,$00,$00,$00,$00,$00,$00,$00,$00,$00,$00
  1717 1A30 00 00 00 00 00 00 + .byte $00,$00,$00,$00,$00,$00,$00,$00,$00,$00,$00,$00,$00,$00,$00,$00
  1718 1A40 00 00 00 00 00 00 + .byte $00,$00,$00,$00,$00,$00,$00,$00,$00,$00,$00,$00,$00,$00,$00,$00
  1719 1A50 00 00 00 00 00 00 + .byte $00,$00,$00,$00,$00,$00,$00,$00,$00,$00,$00,$00,$00,$00,$00,$00
  1720 1A60 00 00 00 00 00 00 + .byte $00,$00,$00,$00,$00,$00,$00,$00,$00,$00,$00,$00,$00,$00,$00,$00
  1721 1A70 00 00 00 00 00 00 + .byte $00,$00,$00,$00,$00,$00,$00,$00,$00,$00,$00,$00,$00,$00,$00,$00
  1722 1A80 00 00 00 00 00 00 + .byte $00,$00,$00,$00,$00,$00,$00,$00,$00,$00,$00,$00,$00,$00,$00,$00
  1723 1A90 00 00 00 00 00 00 + .byte $00,$00,$00,$00,$00,$00,$00,$00,$00,$00,$00,$00,$00,$00,$00,$00
  1724 1AA0 00 00 00 00 00 00 + .byte $00,$00,$00,$00,$00,$00,$00,$00,$00,$00,$00,$00,$00,$00,$00,$00
  1725 1AB0 00 00 00 00 00 00 + .byte $00,$00,$00,$00,$00,$00,$00,$00,$00,$00,$00,$00,$00,$00,$00,$00
  1726 1AC0 00 00 00 00 00 00 + .byte $00,$00,$00,$00,$00,$00,$00,$00,$00,$00,$00,$00,$00,$00,$00,$00
  1727 1AD0 00 00 00 00 00 00 + .byte $00,$00,$00,$00,$00,$00,$00,$00,$00,$00,$00,$00,$00,$00,$00,$00
  1728 1AE0 00 00 00 00 00 00 + .byte $00,$00,$00,$00,$00,$00,$00,$00,$00,$00,$00,$00,$00,$00,$00,$00
  1729 1AF0 00 00 00 00 00 00 + .byte $00,$00,$00,$00,$00,$00,$00,$00,$00,$00,$00,$00,$00,$00,$00,$00
  1730 1B00 00 00 00 00 00 00 + .byte $00,$00,$00,$00,$00,$00,$00,$00,$00,$00,$00,$00,$00,$00,$00,$00
  1731 1B10 00 00 00 00 00 00 + .byte $00,$00,$00,$00,$00,$00,$00,$00,$00,$00,$00,$00,$00,$00,$00,$00
  1732 1B20 00 00 00 00 00 00 + .byte $00,$00,$00,$00,$00,$00,$00,$00,$00,$00,$00,$00,$00,$00,$00,$00
  1733 1B30 00 00 00 00 00 00 + .byte $00,$00,$00,$00,$00,$00,$00,$00,$00,$00,$00,$00,$00,$00,$00,$00
  1734 1B40 00 00 00 00 00 00 + .byte $00,$00,$00,$00,$00,$00,$00,$00,$00,$00,$00,$00,$00,$00,$00,$00
  1735 1B50 00 00 00 00 00 00 + .byte $00,$00,$00,$00,$00,$00,$00,$00,$00,$00,$00,$00,$00,$00,$00,$00
  1736 1B60 00 00 00 00 00 00 + .byte $00,$00,$00,$00,$00,$00,$00,$00,$00,$00,$00,$00,$00,$00,$00,$00
  1737 1B70 00 00 00 00 00 00 + .byte $00,$00,$00,$00,$00,$00,$00,$00,$00,$00,$00,$00,$00,$00,$00,$00
  1738 1B80 00 00 00 00 00 00 + .byte $00,$00,$00,$00,$00,$00,$00,$00,$00,$00,$00,$00,$00,$00,$00,$00
  1739 1B90 00 00 00 00 00 00 + .byte $00,$00,$00,$00,$00,$00,$00,$00,$00,$00,$00,$00,$00,$00,$00,$00
  1740 1BA0 00 00 00 00 00 00 + .byte $00,$00,$00,$00,$00,$00,$00,$00,$00,$00,$00,$00,$00,$00,$00,$00
  1741 1BB0 00 00 00 00 00 00 + .byte $00,$00,$00,$00,$00,$00,$00,$00,$00,$00,$00,$00,$00,$00,$00,$00
  1742 1BC0 00 00 00 00 00 00 + .byte $00,$00,$00,$00,$00,$00,$00,$00,$00,$00,$00,$00,$00,$00,$00,$00
  1743 1BD0 00 00 00 00 00 00 + .byte $00,$00,$00,$00,$00,$00,$00,$00,$00,$00,$00,$00,$00,$00,$00,$00
  1744 1BE0 00 00 00 00 00 00 + .byte $00,$00,$00,$00,$00,$00,$00,$00,$00,$00,$00,$00,$00,$00,$00,$00
  1745 1BF0 00 00 00 00 00 00 + .byte $00,$00,$00,$00,$00,$00,$00,$00,$00,$00,$00,$00,$00,$00,$00,$00
  1746 1C00 00 00 00 00 00 00 + .byte $00,$00,$00,$00,$00,$00,$00,$00,$00,$00,$00,$00,$00,$00,$00,$00
  1747 1C10 00 00 00 00 00 00 + .byte $00,$00,$00,$00,$00,$00,$00,$00,$00,$00,$00,$00,$00,$00,$00,$00
  1748 1C20 00 00 00 00 00 00 + .byte $00,$00,$00,$00,$00,$00,$00,$00,$00,$00,$00,$00,$00,$00,$00,$00
  1749 1C30 00 00 00 00 00 00 + .byte $00,$00,$00,$00,$00,$00,$00,$00,$00,$00,$00,$00,$00,$00,$00,$00
  1750 1C40 00 00 00 00 00 00 + .byte $00,$00,$00,$00,$00,$00,$00,$00,$00,$00,$00,$00,$00,$00,$00,$00
  1751 1C50 00 00 00 00 00 00 + .byte $00,$00,$00,$00,$00,$00,$00,$00,$00,$00,$00,$00,$00,$00,$00,$00
  1752 1C60 00 00 00 00 00 00 + .byte $00,$00,$00,$00,$00,$00,$00,$00,$00,$00,$00,$00,$00,$00,$00,$00
  1753 1C70 00 00 00 00 00 00 + .byte $00,$00,$00,$00,$00,$00,$00,$00,$00,$00,$00,$00,$00,$00,$00,$00
  1754 1C80 00 00 00 00 00 00 + .byte $00,$00,$00,$00,$00,$00,$00,$00,$00,$00,$00,$00,$00,$00,$00,$00
  1755 1C90 00 00 00 00 00 00 + .byte $00,$00,$00,$00,$00,$00,$00,$00,$00,$00,$00,$00,$00,$00,$00,$00
  1756 1CA0 00 00 00 00 00 00 + .byte $00,$00,$00,$00,$00,$00,$00,$00,$00,$00,$00,$00,$00,$00,$00,$00
  1757 1CB0 00 00 00 00 00 00 + .byte $00,$00,$00,$00,$00,$00,$00,$00,$00,$00,$00,$00,$00,$00,$00,$00
  1758 1CC0 00 00 00 00 00 00 + .byte $00,$00,$00,$00,$00,$00,$00,$00,$00,$00,$00,$00,$00,$00,$00,$00
  1759 1CD0 00 00 00 00 00 00 + .byte $00,$00,$00,$00,$00,$00,$00,$00,$00,$00,$00,$00,$00,$00,$00,$00
  1760 1CE0 00 00 00 00 00 00 + .byte $00,$00,$00,$00,$00,$00,$00,$00,$00,$00,$00,$00,$00,$00,$00,$00
  1761 1CF0 00 00 00 00 00 00 + .byte $00,$00,$00,$00,$00,$00,$00,$00,$00,$00,$00,$00,$00,$00,$00,$00
  1762 1D00 00 00 00 00 00 00 + .byte $00,$00,$00,$00,$00,$00,$00,$00,$00,$00,$00,$00,$00,$00,$00,$00
  1763 1D10 00 00 00 00 00 00 + .byte $00,$00,$00,$00,$00,$00,$00,$00,$00,$00,$00,$00,$00,$00,$00,$00
  1764 1D20 00 00 00 00 00 00 + .byte $00,$00,$00,$00,$00,$00,$00,$00,$00,$00,$00,$00,$00,$00,$00,$00
  1765 1D30 00 00 00 00 00 00 + .byte $00,$00,$00,$00,$00,$00,$00,$00,$00,$00,$00,$00,$00,$00,$00,$00
  1766 1D40 00 00 00 00 00 00 + .byte $00,$00,$00,$00,$00,$00,$00,$00,$00,$00,$00,$00,$00,$00,$00,$00
  1767 1D50 00 00 00 00 00 00 + .byte $00,$00,$00,$00,$00,$00,$00,$00,$00,$00,$00,$00,$00,$00,$00,$00
  1768 1D60 00 00 00 00 00 00 + .byte $00,$00,$00,$00,$00,$00,$00,$00,$00,$00,$00,$00,$00,$00,$00,$00
  1769 1D70 00 00 00 00 00 00 + .byte $00,$00,$00,$00,$00,$00,$00,$00,$00,$00,$00,$00,$00,$00,$00,$00
  1770 1D80 00 00 00 00 00 00 + .byte $00,$00,$00,$00,$00,$00,$00,$00,$00,$00,$00,$00,$00,$00,$00,$00
  1771 1D90 00 00 00 00 00 00 + .byte $00,$00,$00,$00,$00,$00,$00,$00,$00,$00,$00,$00,$00,$00,$00,$00
  1772 1DA0 00 00 00 00 00 00 + .byte $00,$00,$00,$00,$00,$00,$00,$00,$00,$00,$00,$00,$00,$00,$00,$00
  1773 1DB0 00 00 00 00 00 00 + .byte $00,$00,$00,$00,$00,$00,$00,$00,$00,$00,$00,$00,$00,$00,$00,$00
  1774 1DC0 00 00 00 00 00 00 + .byte $00,$00,$00,$00,$00,$00,$00,$00,$00,$00,$00,$00,$00,$00,$00,$00
  1775 1DD0 00 00 00 00 00 00 + .byte $00,$00,$00,$00,$00,$00,$00,$00,$00,$00,$00,$00,$00,$00,$00,$00
  1776 1DE0 00 00 00 00 00 00 + .byte $00,$00,$00,$00,$00,$00,$00,$00,$00,$00,$00,$00,$00,$00,$00,$00
  1777 1DF0 00 00 00 00 00 00 + .byte $00,$00,$00,$00,$00,$00,$00,$00,$00,$00,$00,$00,$00,$00,$00,$00
  1778 1E00 00 00 00 00 00 00 + .byte $00,$00,$00,$00,$00,$00,$00,$00,$00,$00,$00,$00,$00,$00,$00,$00
  1779 1E10 00 00 00 00 00 00 + .byte $00,$00,$00,$00,$00,$00,$00,$00,$00,$00,$00,$00,$00,$00,$00,$00
  1780 1E20 00 00 00 00 00 00 + .byte $00,$00,$00,$00,$00,$00,$00,$00,$00,$00,$00,$00,$00,$00,$00,$00
  1781 1E30 00 00 00 00 00 00 + .byte $00,$00,$00,$00,$00,$00,$00,$00,$00,$00,$00,$00,$00,$00,$00,$00
  1782 1E40 00 00 00 00 00 00 + .byte $00,$00,$00,$00,$00,$00,$00,$00,$00,$00,$00,$00,$00,$00,$00,$00
  1783 1E50 00 00 00 00 00 00 + .byte $00,$00,$00,$00,$00,$00,$00,$00,$00,$00,$00,$00,$00,$00,$00,$00
  1784 1E60 00 00 00 00 00 00 + .byte $00,$00,$00,$00,$00,$00,$00,$00,$00,$00,$00,$00,$00,$00,$00,$00
  1785 1E70 00 00 00 00 00 00 + .byte $00,$00,$00,$00,$00,$00,$00,$00,$00,$00,$00,$00,$00,$00,$00,$00
  1786 1E80 00 00 00 00 00 00 + .byte $00,$00,$00,$00,$00,$00,$00,$00,$00,$00,$00,$00,$00,$00,$00,$00
  1787 1E90 00 00 00 00 00 00 + .byte $00,$00,$00,$00,$00,$00,$00,$00,$00,$00,$00,$00,$00,$00,$00,$00
  1788 1EA0 00 00 00 00 00 00 + .byte $00,$00,$00,$00,$00,$00,$00,$00,$00,$00,$00,$00,$00,$00,$00,$00
  1789 1EB0 00 00 00 00 00 00 + .byte $00,$00,$00,$00,$00,$00,$00,$00,$00,$00,$00,$00,$00,$00,$00,$00
  1790 1EC0 00 00 00 00 00 00 + .byte $00,$00,$00,$00,$00,$00,$00,$00,$00,$00,$00,$00,$00,$00,$00,$00
  1791 1ED0 00 00 00 00 00 00 + .byte $00,$00,$00,$00,$00,$00,$00,$00,$00,$00,$00,$00,$00,$00,$00,$00
  1792 1EE0 00 00 00 00 00 00 + .byte $00,$00,$00,$00,$00,$00,$00,$00,$00,$00,$00,$00,$00,$00,$00,$00
  1793 1EF0 00 00 00 00 00 00 + .byte $00,$00,$00,$00,$00,$00,$00,$00,$00,$00,$00,$00,$00,$00,$00,$00
  1794 1F00 00 00 00 00 00 00 + .byte $00,$00,$00,$00,$00,$00,$00,$00,$00,$00,$00,$00,$00,$00,$00,$00
  1795 1F10 00 00 00 00 00 00 + .byte $00,$00,$00,$00,$00,$00,$00,$00,$00,$00,$00,$00,$00,$00,$00,$00
  1796 1F20 00 00 00 00 00 00 + .byte $00,$00,$00,$00,$00,$00,$00,$00,$00,$00,$00,$00,$00,$00,$00,$00
  1797 1F30 00 00 00 00 00 00 + .byte $00,$00,$00,$00,$00,$00,$00,$00,$00,$00,$00,$00,$00,$00,$00,$00
  1798 1F40 00 00 00 00 00 00 + .byte $00,$00,$00,$00,$00,$00,$00,$00,$00,$00,$00,$00,$00,$00,$00,$00
  1799 1F50 00 00 00 00 00 00 + .byte $00,$00,$00,$00,$00,$00,$00,$00,$00,$00,$00,$00,$00,$00,$00,$00
  1800 1F60 00 00 00 00 00 00 + .byte $00,$00,$00,$00,$00,$00,$00,$00,$00,$00,$00,$00,$00,$00,$00,$00
  1801 1F70 00 00 00 00 00 00 + .byte $00,$00,$00,$00,$00,$00,$00,$00,$00,$00,$00,$00,$00,$00,$00,$00
  1802 1F80 00 00 00 00 00 00 + .byte $00,$00,$00,$00,$00,$00,$00,$00,$00,$00,$00,$00,$00,$00,$00,$00
  1803 1F90 00 00 00 00 00 00 + .byte $00,$00,$00,$00,$00,$00,$00,$00,$00,$00,$00,$00,$00,$00,$00,$00
  1804 1FA0 00 00 00 00 00 00 + .byte $00,$00,$00,$00,$00,$00,$00,$00,$00,$00,$00,$00,$00,$00,$00,$00
  1805 1FB0 00 00 00 00 00 00 + .byte $00,$00,$00,$00,$00,$00,$00,$00,$00,$00,$00,$00,$00,$00,$00,$00
  1806 1FC0 00 00 00 00 00 00 + .byte $00,$00,$00,$00,$00,$00,$00,$00,$00,$00,$00,$00,$00,$00,$00,$00
  1807 1FD0 00 00 00 00 00 00 + .byte $00,$00,$00,$00,$00,$00,$00,$00,$00,$00,$00,$00,$00,$00,$00,$00
  1808 1FE0 00 00 00 00 00 00 + .byte $00,$00,$00,$00,$00,$00,$00,$00,$00,$00,$00,$00,$00,$00,$00,$00
  1809 1FF0 00 00 00 00 00 00 + .byte $00,$00,$00,$00,$00,$00,$00,$00,$00,$00,$00,$00,$00,$00,$00,$00
  1810 2000 00 00 00 00 00 00 + .byte $00,$00,$00,$00,$00,$00,$00,$00,$00,$00,$00,$00,$00,$00,$00,$00
  1811 2010 00 00 00 00 00 00 + .byte $00,$00,$00,$00,$00,$00,$00,$00,$00,$00,$00,$00,$00,$00,$00,$00
  1812 2020 00 00 00 00 00 00 + .byte $00,$00,$00,$00,$00,$00,$00,$00,$00,$00,$00,$00,$00,$00,$00,$00
  1813 2030 00 00 00 00 00 00 + .byte $00,$00,$00,$00,$00,$00,$00,$00,$00,$00,$00,$00,$00,$00,$00,$00
  1814 2040 00 00 00 00 00 00 + .byte $00,$00,$00,$00,$00,$00,$00,$00,$00,$00,$00,$00,$00,$00,$00,$00
  1815 2050 00 00 00 00 00 00 + .byte $00,$00,$00,$00,$00,$00,$00,$00,$00,$00,$00,$00,$00,$00,$00,$00
  1816 2060 00 00 00 00 00 00 + .byte $00,$00,$00,$00,$00,$00,$00,$00,$00,$00,$00,$00,$00,$00,$00,$00
  1817 2070 00 00 00 00 00 00 + .byte $00,$00,$00,$00,$00,$00,$00,$00,$00,$00,$00,$00,$00,$00,$00,$00
  1818 2080 00 00 00 00 00 00 + .byte $00,$00,$00,$00,$00,$00,$00,$00,$00,$00,$00,$00,$00,$00,$00,$00
  1819 2090 00 00 00 00 00 00 + .byte $00,$00,$00,$00,$00,$00,$00,$00,$00,$00,$00,$00,$00,$00,$00,$00
  1820 20A0 00 00 00 00 00 00 + .byte $00,$00,$00,$00,$00,$00,$00,$00,$00,$00,$00,$00,$00,$00,$00,$00
  1821 20B0 00 00 00 00 00 00 + .byte $00,$00,$00,$00,$00,$00,$00,$00,$00,$00,$00,$00,$00,$00,$00,$00
  1822 20C0 00 00 00 00 00 00 + .byte $00,$00,$00,$00,$00,$00,$00,$00,$00,$00,$00,$00,$00,$00,$00,$00
  1823 20D0 00 00 00 00 00 00 + .byte $00,$00,$00,$00,$00,$00,$00,$00,$00,$00,$00,$00,$00,$00,$00,$00
  1824 20E0 00 00 00 00 00 00 + .byte $00,$00,$00,$00,$00,$00,$00,$00,$00,$00,$00,$00,$00,$00,$00,$00
  1825 20F0 00 00 00 00 00 00 + .byte $00,$00,$00,$00,$00,$00,$00,$00,$00,$00,$00,$00,$00,$00,$00,$00
  1826 2100 00 00 00 00 00 00 + .byte $00,$00,$00,$00,$00,$00,$00,$00,$00,$00,$00,$00,$00,$00,$00,$00
  1827 2110 00 00 00 00 00 00 + .byte $00,$00,$00,$00,$00,$00,$00,$00,$00,$00,$00,$00,$00,$00,$00,$00
  1828 2120 00 00 00 00 00 00 + .byte $00,$00,$00,$00,$00,$00,$00,$00,$00,$00,$00,$00,$00,$00,$00,$00
  1829 2130 00 00 00 00 00 00 + .byte $00,$00,$00,$00,$00,$00,$00,$00,$00,$00,$00,$00,$00,$00,$00,$00
  1830 2140 00 00 00 00 00 00 + .byte $00,$00,$00,$00,$00,$00,$00,$00,$00,$00,$00,$00,$00,$00,$00,$00
  1831 2150 00 00 00 00 00 00 + .byte $00,$00,$00,$00,$00,$00,$00,$00,$00,$00,$00,$00,$00,$00,$00,$00
  1832 2160 00 00 00 00 00 00 + .byte $00,$00,$00,$00,$00,$00,$00,$00,$00,$00,$00,$00,$00,$00,$00,$00
  1833 2170 00 00 00 00 00 00 + .byte $00,$00,$00,$00,$00,$00,$00,$00,$00,$00,$00,$00,$00,$00,$00,$00
  1834 2180 00 00 00 00 00 00 + .byte $00,$00,$00,$00,$00,$00,$00,$00,$00,$00,$00,$00,$00,$00,$00,$00
  1835 2190 00 00 00 00 00 00 + .byte $00,$00,$00,$00,$00,$00,$00,$00,$00,$00,$00,$00,$00,$00,$00,$00
  1836 21A0 00 00 00 00 00 00 + .byte $00,$00,$00,$00,$00,$00,$00,$00,$00,$00,$00,$00,$00,$00,$00,$00
  1837 21B0 00 00 00 00 00 00 + .byte $00,$00,$00,$00,$00,$00,$00,$00,$00,$00,$00,$00,$00,$00,$00,$00
  1838 21C0 00 00 00 00 00 00 + .byte $00,$00,$00,$00,$00,$00,$00,$00,$00,$00,$00,$00,$00,$00,$00,$00
  1839 21D0 00 00 00 00 00 00 + .byte $00,$00,$00,$00,$00,$00,$00,$00,$00,$00,$00,$00,$00,$00,$00,$00
  1840 21E0 00 00 00 00 00 00 + .byte $00,$00,$00,$00,$00,$00,$00,$00,$00,$00,$00,$00,$00,$00,$00,$00
  1841 21F0 00 00 00 00 00 00 + .byte $00,$00,$00,$00,$00,$00,$00,$00,$00,$00,$00,$00,$00,$00,$00,$00
  1842 2200 00 00 00 00 00 00 + .byte $00,$00,$00,$00,$00,$00,$00,$00,$00,$00,$00,$00,$00,$00,$00,$00
  1843 2210 00 00 00 00 00 00 + .byte $00,$00,$00,$00,$00,$00,$00,$00,$00,$00,$00,$00,$00,$00,$00,$00
  1844 2220 00 00 00 00 00 00 + .byte $00,$00,$00,$00,$00,$00,$00,$00,$00,$00,$00,$00,$00,$00,$00,$00
  1845 2230 00 00 00 00 00 00 + .byte $00,$00,$00,$00,$00,$00,$00,$00,$00,$00,$00,$00,$00,$00,$00,$00
  1846 2240 00 00 00 00 00 00 + .byte $00,$00,$00,$00,$00,$00,$00,$00,$00,$00,$00,$00,$00,$00,$00,$00
  1847 2250 00 00 00 00 00 00 + .byte $00,$00,$00,$00,$00,$00,$00,$00,$00,$00,$00,$00,$00,$00,$00,$00
  1848 2260 00 00 00 00 00 00 + .byte $00,$00,$00,$00,$00,$00,$00,$00,$00,$00,$00,$00,$00,$00,$00,$00
  1849 2270 00 00 00 00 00 00 + .byte $00,$00,$00,$00,$00,$00,$00,$00,$00,$00,$00,$00,$00,$00,$00,$00
  1850 2280 00 00 00 00 00 00 + .byte $00,$00,$00,$00,$00,$00,$00,$00,$00,$00,$00,$00,$00,$00,$00,$00
  1851 2290 00 00 00 00 00 00 + .byte $00,$00,$00,$00,$00,$00,$00,$00,$00,$00,$00,$00,$00,$00,$00,$00
  1852 22A0 00 00 00 00 00 00 + .byte $00,$00,$00,$00,$00,$00,$00,$00,$00,$00,$00,$00,$00,$00,$00,$00
  1853 22B0 00 00 00 00 00 00 + .byte $00,$00,$00,$00,$00,$00,$00,$00,$00,$00,$00,$00,$00,$00,$00,$00
  1854 22C0 00 00 00 00 00 00 + .byte $00,$00,$00,$00,$00,$00,$00,$00,$00,$00,$00,$00,$00,$00,$00,$00
  1855 22D0 00 00 00 00 00 00 + .byte $00,$00,$00,$00,$00,$00,$00,$00,$00,$00,$00,$00,$00,$00,$00,$00
  1856 22E0 00 00 00 00 00 00 + .byte $00,$00,$00,$00,$00,$00,$00,$00,$00,$00,$00,$00,$00,$00,$00,$00
  1857 22F0 00 00 00 00 00 00 + .byte $00,$00,$00,$00,$00,$00,$00,$00,$00,$00,$00,$00,$00,$00,$00,$00
  1858 2300 00 00 00 00 00 00 + .byte $00,$00,$00,$00,$00,$00,$00,$00,$00,$00,$00,$00,$00,$00,$00,$00
  1859 2310 00 00 00 00 00 00 + .byte $00,$00,$00,$00,$00,$00,$00,$00,$00,$00,$00,$00,$00,$00,$00,$00
  1860 2320 00 00 00 00 00 00 + .byte $00,$00,$00,$00,$00,$00,$00,$00,$00,$00,$00,$00,$00,$00,$00,$00
  1861 2330 00 00 00 00 00 00 + .byte $00,$00,$00,$00,$00,$00,$00,$00,$00,$00,$00,$00,$00,$00,$00,$00
  1862 2340 00 00 00 00 00 00 + .byte $00,$00,$00,$00,$00,$00,$00,$00,$00,$00,$00,$00,$00,$00,$00,$00
  1863 2350 00 00 00 00 00 00 + .byte $00,$00,$00,$00,$00,$00,$00,$00,$00,$00,$00,$00,$00,$00,$00,$00
  1864 2360 00 00 00 00 00 00 + .byte $00,$00,$00,$00,$00,$00,$00,$00,$00,$00,$00,$00,$00,$00,$00,$00
  1865 2370 00 00 00 00 00 00 + .byte $00,$00,$00,$00,$00,$00,$00,$00,$00,$00,$00,$00,$00,$00,$00,$00
  1866 2380 00 00 00 00 00 00 + .byte $00,$00,$00,$00,$00,$00,$00,$00,$00,$00,$00,$00,$00,$00,$00,$00
  1867 2390 00 00 00 00 00 00 + .byte $00,$00,$00,$00,$00,$00,$00,$00,$00,$00,$00,$00,$00,$00,$00,$00
  1868 23A0 00 00 00 00 00 00 + .byte $00,$00,$00,$00,$00,$00,$00,$00,$00,$00,$00,$00,$00,$00,$00,$00
  1869 23B0 00 00 00 00 00 00 + .byte $00,$00,$00,$00,$00,$00,$00,$00,$00,$00,$00,$00,$00,$00,$00,$00
  1870 23C0 00 00 00 00 00 00 + .byte $00,$00,$00,$00,$00,$00,$00,$00,$00,$00,$00,$00,$00,$00,$00,$00
  1871 23D0 00 00 00 00 00 00 + .byte $00,$00,$00,$00,$00,$00,$00,$00,$00,$00,$00,$00,$00,$00,$00,$00
  1872 23E0 00 00 00 00 00 00 + .byte $00,$00,$00,$00,$00,$00,$00,$00,$00,$00,$00,$00,$00,$00,$00,$00
  1873 23F0 00 00 00 00 00 00 + .byte $00,$00,$00,$00,$00,$00,$00,$00,$00,$00,$00,$00,$00,$00,$00,$00
  1874 2400 00 00 00 00 00 00 + .byte $00,$00,$00,$00,$00,$00,$00,$00,$00,$00,$00,$00,$00,$00,$00,$00
  1875 2410 00 00 00 00 00 00 + .byte $00,$00,$00,$00,$00,$00,$00,$00,$00,$00,$00,$00,$00,$00,$00,$00
  1876 2420 00 00 00 00 00 00 + .byte $00,$00,$00,$00,$00,$00,$00,$00,$00,$00,$00,$00,$00,$00,$00,$00
  1877 2430 00 00 00 00 00 00 + .byte $00,$00,$00,$00,$00,$00,$00,$00,$00,$00,$00,$00,$00,$00,$00,$00
  1878 2440 00 00 00 00 00 00 + .byte $00,$00,$00,$00,$00,$00,$00,$00,$00,$00,$00,$00,$00,$00,$00,$00
  1879 2450 00 00 00 00 00 00 + .byte $00,$00,$00,$00,$00,$00,$00,$00,$00,$00,$00,$00,$00,$00,$00,$00
  1880 2460 00 00 00 00 00 00 + .byte $00,$00,$00,$00,$00,$00,$00,$00,$00,$00,$00,$00,$00,$00,$00,$00
  1881 2470 00 00 00 00 00 00 + .byte $00,$00,$00,$00,$00,$00,$00,$00,$00,$00,$00,$00,$00,$00,$00,$00
  1882 2480 00 00 00 00 00 00 + .byte $00,$00,$00,$00,$00,$00,$00,$00,$00,$00,$00,$00,$00,$00,$00,$00
  1883 2490 00 00 00 00 00 00 + .byte $00,$00,$00,$00,$00,$00,$00,$00,$00,$00,$00,$00,$00,$00,$00,$00
  1884 24A0 00 00 00 00 00 00 + .byte $00,$00,$00,$00,$00,$00,$00,$00,$00,$00,$00,$00,$00,$00,$00,$00
  1885 24B0 00 00 00 00 00 00 + .byte $00,$00,$00,$00,$00,$00,$00,$00,$00,$00,$00,$00,$00,$00,$00,$00
  1886 24C0 00 00 00 00 00 00 + .byte $00,$00,$00,$00,$00,$00,$00,$00,$00,$00,$00,$00,$00,$00,$00,$00
  1887 24D0 00 00 00 00 00 00 + .byte $00,$00,$00,$00,$00,$00,$00,$00,$00,$00,$00,$00,$00,$00,$00,$00
  1888 24E0 00 00 00 00 00 00 + .byte $00,$00,$00,$00,$00,$00,$00,$00,$00,$00,$00,$00,$00,$00,$00,$00
  1889 24F0 00 00 00 00 00 00 + .byte $00,$00,$00,$00,$00,$00,$00,$00,$00,$00,$00,$00,$00,$00,$00,$00
  1890 2500 00 00 00 00 00 00 + .byte $00,$00,$00,$00,$00,$00,$00,$00,$00,$00,$00,$00,$00,$00,$00,$00
  1891 2510 00 00 00 00 00 00 + .byte $00,$00,$00,$00,$00,$00,$00,$00,$00,$00,$00,$00,$00,$00,$00,$00
  1892 2520 00 00 00 00 00 00 + .byte $00,$00,$00,$00,$00,$00,$00,$00,$00,$00,$00,$00,$00,$00,$00,$00
  1893 2530 00 00 00 00 00 00 + .byte $00,$00,$00,$00,$00,$00,$00,$00,$00,$00,$00,$00,$00,$00,$00,$00
  1894 2540 00 00 00 00 00 00 + .byte $00,$00,$00,$00,$00,$00,$00,$00,$00,$00,$00,$00,$00,$00,$00,$00
  1895 2550 00 00 00 00 00 00 + .byte $00,$00,$00,$00,$00,$00,$00,$00,$00,$00,$00,$00,$00,$00,$00,$00
  1896 2560 00 00 00 00 00 00 + .byte $00,$00,$00,$00,$00,$00,$00,$00,$00,$00,$00,$00,$00,$00,$00,$00
  1897 2570 00 00 00 00 00 00 + .byte $00,$00,$00,$00,$00,$00,$00,$00,$00,$00,$00,$00,$00,$00,$00,$00
  1898 2580 00 00 00 00 00 00 + .byte $00,$00,$00,$00,$00,$00,$00,$00,$00,$00,$00,$00,$00,$00,$00,$00
  1899 2590 00 00 00 00 00 00 + .byte $00,$00,$00,$00,$00,$00,$00,$00,$00,$00,$00,$00,$00,$00,$00,$00
  1900 25A0 00 00 00 00 00 00 + .byte $00,$00,$00,$00,$00,$00,$00,$00,$00,$00,$00,$00,$00,$00,$00,$00
  1901 25B0 00 00 00 00 00 00 + .byte $00,$00,$00,$00,$00,$00,$00,$00,$00,$00,$00,$00,$00,$00,$00,$00
  1902 25C0 00 00 00 00 00 00 + .byte $00,$00,$00,$00,$00,$00,$00,$00,$00,$00,$00,$00,$00,$00,$00,$00
  1903 25D0 00 00 00 00 00 00 + .byte $00,$00,$00,$00,$00,$00,$00,$00,$00,$00,$00,$00,$00,$00,$00,$00
  1904 25E0 00 00 00 00 00 00 + .byte $00,$00,$00,$00,$00,$00,$00,$00,$00,$00,$00,$00,$00,$00,$00,$00
  1905 25F0 00 00 00 00 00 00 + .byte $00,$00,$00,$00,$00,$00,$00,$00,$00,$00,$00,$00,$00,$00,$00,$00
  1906 2600 00 00 00 00 00 00 + .byte $00,$00,$00,$00,$00,$00,$00,$00,$00,$00,$00,$00,$00,$00,$00,$00
  1907 2610 00 00 00 00 00 00 + .byte $00,$00,$00,$00,$00,$00,$00,$00,$00,$00,$00,$00,$00,$00,$00,$00
  1908 2620 00 00 00 00 00 00 + .byte $00,$00,$00,$00,$00,$00,$00,$00,$00,$00,$00,$00,$00,$00,$00,$00
  1909 2630 00 00 00 00 00 00 + .byte $00,$00,$00,$00,$00,$00,$00,$00,$00,$00,$00,$00,$00,$00,$00,$00
  1910 2640 00 00 00 00 00 00 + .byte $00,$00,$00,$00,$00,$00,$00,$00,$00,$00,$00,$00,$00,$00,$00,$00
  1911 2650 00 00 00 00 00 00 + .byte $00,$00,$00,$00,$00,$00,$00,$00,$00,$00,$00,$00,$00,$00,$00,$00
  1912 2660 00 00 00 00 00 00 + .byte $00,$00,$00,$00,$00,$00,$00,$00,$00,$00,$00,$00,$00,$00,$00,$00
  1913 2670 00 00 00 00 00 00 + .byte $00,$00,$00,$00,$00,$00,$00,$00,$00,$00,$00,$00,$00,$00,$00,$00
  1914 2680 00 00 00 00 00 00 + .byte $00,$00,$00,$00,$00,$00,$00,$00,$00,$00,$00,$00,$00,$00,$00,$00
  1915 2690 00 00 00 00 00 00 + .byte $00,$00,$00,$00,$00,$00,$00,$00,$00,$00,$00,$00,$00,$00,$00,$00
  1916 26A0 00 00 00 00 00 00 + .byte $00,$00,$00,$00,$00,$00,$00,$00,$00,$00,$00,$00,$00,$00,$00,$00
  1917 26B0 00 00 00 00 00 00 + .byte $00,$00,$00,$00,$00,$00,$00,$00,$00,$00,$00,$00,$00,$00,$00,$00
  1918 26C0 00 00 00 00 00 00 + .byte $00,$00,$00,$00,$00,$00,$00,$00,$00,$00,$00,$00,$00,$00,$00,$00
  1919 26D0 00 00 00 00 00 00 + .byte $00,$00,$00,$00,$00,$00,$00,$00,$00,$00,$00,$00,$00,$00,$00,$00
  1920 26E0 00 00 00 00 00 00 + .byte $00,$00,$00,$00,$00,$00,$00,$00,$00,$00,$00,$00,$00,$00,$00,$00
  1921 26F0 00 00 00 00 00 00 + .byte $00,$00,$00,$00,$00,$00,$00,$00,$00,$00,$00,$00,$00,$00,$00,$00
  1922 2700 00 00 00 00 00 00 + .byte $00,$00,$00,$00,$00,$00,$00,$00,$00,$00,$00,$00,$00,$00,$00,$00
  1923 2710 00 00 00 00 00 00 + .byte $00,$00,$00,$00,$00,$00,$00,$00,$00,$00,$00,$00,$00,$00,$00,$00
  1924 2720 00 00 00 00 00 00 + .byte $00,$00,$00,$00,$00,$00,$00,$00,$00,$00,$00,$00,$00,$00,$00,$00
  1925 2730 00 00 00 00 00 00 + .byte $00,$00,$00,$00,$00,$00,$00,$00,$00,$00,$00,$00,$00,$00,$00,$00
  1926 2740 00 00 00 00 00 00 + .byte $00,$00,$00,$00,$00,$00,$00,$00,$00,$00,$00,$00,$00,$00,$00,$00
  1927 2750 00 00 00 00 00 00 + .byte $00,$00,$00,$00,$00,$00,$00,$00,$00,$00,$00,$00,$00,$00,$00,$00
  1928 2760 00 00 00 00 00 00 + .byte $00,$00,$00,$00,$00,$00,$00,$00,$00,$00,$00,$00,$00,$00,$00,$00
  1929 2770 00 00 00 00 00 00 + .byte $00,$00,$00,$00,$00,$00,$00,$00,$00,$00,$00,$00,$00,$00,$00,$00
  1930 2780 00 00 00 00 00 00 + .byte $00,$00,$00,$00,$00,$00,$00,$00,$00,$00,$00,$00,$00,$00,$00,$00
  1931 2790 00 00 00 00 00 00 + .byte $00,$00,$00,$00,$00,$00,$00,$00,$00,$00,$00,$00,$00,$00,$00,$00
  1932 27A0 00 00 00 00 00 00 + .byte $00,$00,$00,$00,$00,$00,$00,$00,$00,$00,$00,$00,$00,$00,$00,$00
  1933 27B0 00 00 00 00 00 00 + .byte $00,$00,$00,$00,$00,$00,$00,$00,$00,$00,$00,$00,$00,$00,$00,$00
  1934 27C0 00 00 00 00 00 00 + .byte $00,$00,$00,$00,$00,$00,$00,$00,$00,$00,$00,$00,$00,$00,$00,$00
  1935 27D0 00 00 00 00 00 00 + .byte $00,$00,$00,$00,$00,$00,$00,$00,$00,$00,$00,$00,$00,$00,$00,$00
  1936 27E0 00 00 00 00 00 00 + .byte $00,$00,$00,$00,$00,$00,$00,$00,$00,$00,$00,$00,$00,$00,$00,$00
  1937 27F0 00 00 00 00 00 00 + .byte $00,$00,$00,$00,$00,$00,$00,$00,$00,$00,$00,$00,$00,$00,$00,$00
  1938 2800 00 00 00 00 00 00 + .byte $00,$00,$00,$00,$00,$00,$00,$00,$00,$00,$00,$00,$00,$00,$00,$00
  1939 2810 00 00 00 00 00 00 + .byte $00,$00,$00,$00,$00,$00,$00,$00,$00,$00,$00,$00,$00,$00,$00,$00
  1940 2820 00 00 00 00 00 00 + .byte $00,$00,$00,$00,$00,$00,$00,$00,$00,$00,$00,$00,$00,$00,$00,$00
  1941 2830 00 00 00 00 00 00 + .byte $00,$00,$00,$00,$00,$00,$00,$00,$00,$00,$00,$00,$00,$00,$00,$00
  1942 2840 00 00 00 00 00 00 + .byte $00,$00,$00,$00,$00,$00,$00,$00,$00,$00,$00,$00,$00,$00,$00,$00
  1943 2850 00 00 00 00 00 00 + .byte $00,$00,$00,$00,$00,$00,$00,$00,$00,$00,$00,$00,$00,$00,$00,$00
  1944 2860 00 00 00 00 00 00 + .byte $00,$00,$00,$00,$00,$00,$00,$00,$00,$00,$00,$00,$00,$00,$00,$00
  1945 2870 00 00 00 00 00 00 + .byte $00,$00,$00,$00,$00,$00,$00,$00,$00,$00,$00,$00,$00,$00,$00,$00
  1946 2880 00 00 00 00 00 00 + .byte $00,$00,$00,$00,$00,$00,$00,$00,$00,$00,$00,$00,$00,$00,$00,$00
  1947 2890 00 00 00 00 00 00 + .byte $00,$00,$00,$00,$00,$00,$00,$00,$00,$00,$00,$00,$00,$00,$00,$00
  1948 28A0 00 00 00 00 00 00 + .byte $00,$00,$00,$00,$00,$00,$00,$00,$00,$00,$00,$00,$00,$00,$00,$00
  1949 28B0 00 00 00 00 00 00 + .byte $00,$00,$00,$00,$00,$00,$00,$00,$00,$00,$00,$00,$00,$00,$00,$00
  1950 28C0 00 00 00 00 00 00 + .byte $00,$00,$00,$00,$00,$00,$00,$00,$00,$00,$00,$00,$00,$00,$00,$00
  1951 28D0 00 00 00 00 00 00 + .byte $00,$00,$00,$00,$00,$00,$00,$00,$00,$00,$00,$00,$00,$00,$00,$00
  1952 28E0 00 00 00 00 00 00 + .byte $00,$00,$00,$00,$00,$00,$00,$00,$00,$00,$00,$00,$00,$00,$00,$00
  1953 28F0 00 00 00 00 00 00 + .byte $00,$00,$00,$00,$00,$00,$00,$00,$00,$00,$00,$00,$00,$00,$00,$00
  1954 2900 00 00 00 00 00 00 + .byte $00,$00,$00,$00,$00,$00,$00,$00,$00,$00,$00,$00,$00,$00,$00,$00
  1955 2910 00 00 00 00 00 00 + .byte $00,$00,$00,$00,$00,$00,$00,$00,$00,$00,$00,$00,$00,$00,$00,$00
  1956 2920 00 00 00 00 00 00 + .byte $00,$00,$00,$00,$00,$00,$00,$00,$00,$00,$00,$00,$00,$00,$00,$00
  1957 2930 00 00 00 00 00 00 + .byte $00,$00,$00,$00,$00,$00,$00,$00,$00,$00,$00,$00,$00,$00,$00,$00
  1958 2940 00 00 00 00 00 00 + .byte $00,$00,$00,$00,$00,$00,$00,$00,$00,$00,$00,$00,$00,$00,$00,$00
  1959 2950 00 00 00 00 00 00 + .byte $00,$00,$00,$00,$00,$00,$00,$00,$00,$00,$00,$00,$00,$00,$00,$00
  1960 2960 00 00 00 00 00 00 + .byte $00,$00,$00,$00,$00,$00,$00,$00,$00,$00,$00,$00,$00,$00,$00,$00
  1961 2970 00 00 00 00 00 00 + .byte $00,$00,$00,$00,$00,$00,$00,$00,$00,$00,$00,$00,$00,$00,$00,$00
  1962 2980 00 00 00 00 00 00 + .byte $00,$00,$00,$00,$00,$00,$00,$00,$00,$00,$00,$00,$00,$00,$00,$00
  1963 2990 00 00 00 00 00 00 + .byte $00,$00,$00,$00,$00,$00,$00,$00,$00,$00,$00,$00,$00,$00,$00,$00
  1964 29A0 00 00 00 00 00 00 + .byte $00,$00,$00,$00,$00,$00,$00,$00,$00,$00,$00,$00,$00,$00,$00,$00
  1965 29B0 00 00 00 00 00 00 + .byte $00,$00,$00,$00,$00,$00,$00,$00,$00,$00,$00,$00,$00,$00,$00,$00
  1966 29C0 00 00 00 00 00 00 + .byte $00,$00,$00,$00,$00,$00,$00,$00,$00,$00,$00,$00,$00,$00,$00,$00
  1967 29D0 00 00 00 00 00 00 + .byte $00,$00,$00,$00,$00,$00,$00,$00,$00,$00,$00,$00,$00,$00,$00,$00
  1968 29E0 00 00 00 00 00 00 + .byte $00,$00,$00,$00,$00,$00,$00,$00,$00,$00,$00,$00,$00,$00,$00,$00
  1969 29F0 00 00 00 00 00 00 + .byte $00,$00,$00,$00,$00,$00,$00,$00,$00,$00,$00,$00,$00,$00,$00,$00
  1970 2A00 00 00 00 00 00 00 + .byte $00,$00,$00,$00,$00,$00,$00,$00,$00,$00,$00,$00,$00,$00,$00,$00
  1971 2A10 00 00 00 00 00 00 + .byte $00,$00,$00,$00,$00,$00,$00,$00,$00,$00,$00,$00,$00,$00,$00,$00
  1972 2A20 00 00 00 00 00 00 + .byte $00,$00,$00,$00,$00,$00,$00,$00,$00,$00,$00,$00,$00,$00,$00,$00
  1973 2A30 00 00 00 00 00 00 + .byte $00,$00,$00,$00,$00,$00,$00,$00,$00,$00,$00,$00,$00,$00,$00,$00
  1974 2A40 00 00 00 00 00 00 + .byte $00,$00,$00,$00,$00,$00,$00,$00,$00,$00,$00,$00,$00,$00,$00,$00
  1975 2A50 00 00 00 00 00 00 + .byte $00,$00,$00,$00,$00,$00,$00,$00,$00,$00,$00,$00,$00,$00,$00,$00
  1976 2A60 00 00 00 00 00 00 + .byte $00,$00,$00,$00,$00,$00,$00,$00,$00,$00,$00,$00,$00,$00,$00,$00
  1977 2A70 00 00 00 00 00 00 + .byte $00,$00,$00,$00,$00,$00,$00,$00,$00,$00,$00,$00,$00,$00,$00,$00
  1978 2A80 00 00 00 00 00 00 + .byte $00,$00,$00,$00,$00,$00,$00,$00,$00,$00,$00,$00,$00,$00,$00,$00
  1979 2A90 00 00 00 00 00 00 + .byte $00,$00,$00,$00,$00,$00,$00,$00,$00,$00,$00,$00,$00,$00,$00,$00
  1980 2AA0 00 00 00 00 00 00 + .byte $00,$00,$00,$00,$00,$00,$00,$00,$00,$00,$00,$00,$00,$00,$00,$00
  1981 2AB0 00 00 00 00 00 00 + .byte $00,$00,$00,$00,$00,$00,$00,$00,$00,$00,$00,$00,$00,$00,$00,$00
  1982 2AC0 00 00 00 00 00 00 + .byte $00,$00,$00,$00,$00,$00,$00,$00,$00,$00,$00,$00,$00,$00,$00,$00
  1983 2AD0 00 00 00 00 00 00 + .byte $00,$00,$00,$00,$00,$00,$00,$00,$00,$00,$00,$00,$00,$00,$00,$00
  1984 2AE0 00 00 00 00 00 00 + .byte $00,$00,$00,$00,$00,$00,$00,$00,$00,$00,$00,$00,$00,$00,$00,$00
  1985 2AF0 00 00 00 00 00 00 + .byte $00,$00,$00,$00,$00,$00,$00,$00,$00,$00,$00,$00,$00,$00,$00,$00
  1986 2B00 00 00 00 00 00 00 + .byte $00,$00,$00,$00,$00,$00,$00,$00,$00,$00,$00,$00,$00,$00,$00,$00
  1987 2B10 00 00 00 00 00 00 + .byte $00,$00,$00,$00,$00,$00,$00,$00,$00,$00,$00,$00,$00,$00,$00,$00
  1988 2B20 00 00 00 00 00 00 + .byte $00,$00,$00,$00,$00,$00,$00,$00,$00,$00,$00,$00,$00,$00,$00,$00
  1989 2B30 00 00 00 00 00 00 + .byte $00,$00,$00,$00,$00,$00,$00,$00,$00,$00,$00,$00,$00,$00,$00,$00
  1990 2B40 00 00 00 00 00 00 + .byte $00,$00,$00,$00,$00,$00,$00,$00,$00,$00,$00,$00,$00,$00,$00,$00
  1991 2B50 00 00 00 00 00 00 + .byte $00,$00,$00,$00,$00,$00,$00,$00,$00,$00,$00,$00,$00,$00,$00,$00
  1992 2B60 00 00 00 00 00 00 + .byte $00,$00,$00,$00,$00,$00,$00,$00,$00,$00,$00,$00,$00,$00,$00,$00
  1993 2B70 00 00 00 00 00 00 + .byte $00,$00,$00,$00,$00,$00,$00,$00,$00,$00,$00,$00,$00,$00,$00,$00
  1994 2B80 00 00 00 00 00 00 + .byte $00,$00,$00,$00,$00,$00,$00,$00,$00,$00,$00,$00,$00,$00,$00,$00
  1995 2B90 00 00 00 00 00 00 + .byte $00,$00,$00,$00,$00,$00,$00,$00,$00,$00,$00,$00,$00,$00,$00,$00
  1996 2BA0 00 00 00 00 00 00 + .byte $00,$00,$00,$00,$00,$00,$00,$00,$00,$00,$00,$00,$00,$00,$00,$00
  1997 2BB0 00 00 00 00 00 00 + .byte $00,$00,$00,$00,$00,$00,$00,$00,$00,$00,$00,$00,$00,$00,$00,$00
  1998 2BC0 00 00 00 00 00 00 + .byte $00,$00,$00,$00,$00,$00,$00,$00,$00,$00,$00,$00,$00,$00,$00,$00
  1999 2BD0 00 00 00 00 00 00 + .byte $00,$00,$00,$00,$00,$00,$00,$00,$00,$00,$00,$00,$00,$00,$00,$00
  2000 2BE0 00 00 00 00 00 00 + .byte $00,$00,$00,$00,$00,$00,$00,$00,$00,$00,$00,$00,$00,$00,$00,$00
  2001 2BF0 00 00 00 00 00 00 + .byte $00,$00,$00,$00,$00,$00,$00,$00,$00,$00,$00,$00,$00,$00,$00,$00
  2002 2C00 00 00 00 00 00 00 + .byte $00,$00,$00,$00,$00,$00,$00,$00,$00,$00,$00,$00,$00,$00,$00,$00
  2003 2C10 00 00 00 00 00 00 + .byte $00,$00,$00,$00,$00,$00,$00,$00,$00,$00,$00,$00,$00,$00,$00,$00
  2004 2C20 00 00 00 00 00 00 + .byte $00,$00,$00,$00,$00,$00,$00,$00,$00,$00,$00,$00,$00,$00,$00,$00
  2005 2C30 00 00 00 00 00 00 + .byte $00,$00,$00,$00,$00,$00,$00,$00,$00,$00,$00,$00,$00,$00,$00,$00
  2006 2C40 00 00 00 00 00 00 + .byte $00,$00,$00,$00,$00,$00,$00,$00,$00,$00,$00,$00,$00,$00,$00,$00
  2007 2C50 00 00 00 00 00 00 + .byte $00,$00,$00,$00,$00,$00,$00,$00,$00,$00,$00,$00,$00,$00,$00,$00
  2008 2C60 00 00 00 00 00 00 + .byte $00,$00,$00,$00,$00,$00,$00,$00,$00,$00,$00,$00,$00,$00,$00,$00
  2009 2C70 00 00 00 00 00 00 + .byte $00,$00,$00,$00,$00,$00,$00,$00,$00,$00,$00,$00,$00,$00,$00,$00
  2010 2C80 00 00 00 00 00 00 + .byte $00,$00,$00,$00,$00,$00,$00,$00,$00,$00,$00,$00,$00,$00,$00,$00
  2011 2C90 00 00 00 00 00 00 + .byte $00,$00,$00,$00,$00,$00,$00,$00,$00,$00,$00,$00,$00,$00,$00,$00
  2012 2CA0 00 00 00 00 00 00 + .byte $00,$00,$00,$00,$00,$00,$00,$00,$00,$00,$00,$00,$00,$00,$00,$00
  2013 2CB0 00 00 00 00 00 00 + .byte $00,$00,$00,$00,$00,$00,$00,$00,$00,$00,$00,$00,$00,$00,$00,$00
  2014 2CC0 00 00 00 00 00 00 + .byte $00,$00,$00,$00,$00,$00,$00,$00,$00,$00,$00,$00,$00,$00,$00,$00
  2015 2CD0 00 00 00 00 00 00 + .byte $00,$00,$00,$00,$00,$00,$00,$00,$00,$00,$00,$00,$00,$00,$00,$00
  2016 2CE0 00 00 00 00 00 00 + .byte $00,$00,$00,$00,$00,$00,$00,$00,$00,$00,$00,$00,$00,$00,$00,$00
  2017 2CF0 00 00 00 00 00 00 + .byte $00,$00,$00,$00,$00,$00,$00,$00,$00,$00,$00,$00,$00,$00,$00,$00
  2018 2D00 00 00 00 00 00 00 + .byte $00,$00,$00,$00,$00,$00,$00,$00,$00,$00,$00,$00,$00,$00,$00,$00
  2019 2D10 00 00 00 00 00 00 + .byte $00,$00,$00,$00,$00,$00,$00,$00,$00,$00,$00,$00,$00,$00,$00,$00
  2020 2D20 00 00 00 00 00 00 + .byte $00,$00,$00,$00,$00,$00,$00,$00,$00,$00,$00,$00,$00,$00,$00,$00
  2021 2D30 00 00 00 00 00 00 + .byte $00,$00,$00,$00,$00,$00,$00,$00,$00,$00,$00,$00,$00,$00,$00,$00
  2022 2D40 00 00 00 00 00 00 + .byte $00,$00,$00,$00,$00,$00,$00,$00,$00,$00,$00,$00,$00,$00,$00,$00
  2023 2D50 00 00 00 00 00 00 + .byte $00,$00,$00,$00,$00,$00,$00,$00,$00,$00,$00,$00,$00,$00,$00,$00
  2024 2D60 00 00 00 00 00 00 + .byte $00,$00,$00,$00,$00,$00,$00,$00,$00,$00,$00,$00,$00,$00,$00,$00
  2025 2D70 00 00 00 00 00 00 + .byte $00,$00,$00,$00,$00,$00,$00,$00,$00,$00,$00,$00,$00,$00,$00,$00
  2026 2D80 00 00 00 00 00 00 + .byte $00,$00,$00,$00,$00,$00,$00,$00,$00,$00,$00,$00,$00,$00,$00,$00
  2027 2D90 00 00 00 00 00 00 + .byte $00,$00,$00,$00,$00,$00,$00,$00,$00,$00,$00,$00,$00,$00,$00,$00
  2028 2DA0 00 00 00 00 00 00 + .byte $00,$00,$00,$00,$00,$00,$00,$00,$00,$00,$00,$00,$00,$00,$00,$00
  2029 2DB0 00 00 00 00 00 00 + .byte $00,$00,$00,$00,$00,$00,$00,$00,$00,$00,$00,$00,$00,$00,$00,$00
  2030 2DC0 00 00 00 00 00 00 + .byte $00,$00,$00,$00,$00,$00,$00,$00,$00,$00,$00,$00,$00,$00,$00,$00
  2031 2DD0 00 00 00 00 00 00 + .byte $00,$00,$00,$00,$00,$00,$00,$00,$00,$00,$00,$00,$00,$00,$00,$00
  2032 2DE0 00 00 00 00 00 00 + .byte $00,$00,$00,$00,$00,$00,$00,$00,$00,$00,$00,$00,$00,$00,$00,$00
  2033 2DF0 00 00 00 00 00 00 + .byte $00,$00,$00,$00,$00,$00,$00,$00,$00,$00,$00,$00,$00,$00,$00,$00
  2034 2E00 00 00 00 00 00 00 + .byte $00,$00,$00,$00,$00,$00,$00,$00,$00,$00,$00,$00,$00,$00,$00,$00
  2035 2E10 00 00 00 00 00 00 + .byte $00,$00,$00,$00,$00,$00,$00,$00,$00,$00,$00,$00,$00,$00,$00,$00
  2036 2E20 00 00 00 00 00 00 + .byte $00,$00,$00,$00,$00,$00,$00,$00,$00,$00,$00,$00,$00,$00,$00,$00
  2037 2E30 00 00 00 00 00 00 + .byte $00,$00,$00,$00,$00,$00,$00,$00,$00,$00,$00,$00,$00,$00,$00,$00
  2038 2E40 00 00 00 00 00 00 + .byte $00,$00,$00,$00,$00,$00,$00,$00,$00,$00,$00,$00,$00,$00,$00,$00
  2039 2E50 00 00 00 00 00 00 + .byte $00,$00,$00,$00,$00,$00,$00,$00,$00,$00,$00,$00,$00,$00,$00,$00
  2040 2E60 00 00 00 00 00 00 + .byte $00,$00,$00,$00,$00,$00,$00,$00,$00,$00,$00,$00,$00,$00,$00,$00
  2041 2E70 00 00 00 00 00 00 + .byte $00,$00,$00,$00,$00,$00,$00,$00,$00,$00,$00,$00,$00,$00,$00,$00
  2042 2E80 00 00 00 00 00 00 + .byte $00,$00,$00,$00,$00,$00,$00,$00,$00,$00,$00,$00,$00,$00,$00,$00
  2043 2E90 00 00 00 00 00 00 + .byte $00,$00,$00,$00,$00,$00,$00,$00,$00,$00,$00,$00,$00,$00,$00,$00
  2044 2EA0 00 00 00 00 00 00 + .byte $00,$00,$00,$00,$00,$00,$00,$00,$00,$00,$00,$00,$00,$00,$00,$00
  2045 2EB0 00 00 00 00 00 00 + .byte $00,$00,$00,$00,$00,$00,$00,$00,$00,$00,$00,$00,$00,$00,$00,$00
  2046 2EC0 00 00 00 00 00 00 + .byte $00,$00,$00,$00,$00,$00,$00,$00,$00,$00,$00,$00,$00,$02,$00,$00
  2047 2ED0 00 00 00 00 00 00 + .byte $00,$00,$00,$00,$00,$00,$00,$00,$00,$00,$00,$00,$00,$00,$00,$00
  2048 2EE0 00 00 00 00 00 00 + .byte $00,$00,$00,$00,$00,$00,$00,$00,$00,$00,$00,$00,$00,$00,$00,$00
  2049 2EF0 00 00 00 00 00 0A + .byte $00,$00,$00,$00,$00,$0A,$00,$00,$00,$00,$00,$00,$00,$00,$00,$00
  2050 2F00 00 00 00 00 00 00 + .byte $00,$00,$00,$00,$00,$00,$00,$00,$00,$00,$00,$00,$00,$00,$00,$00
  2051 2F10 00 00 00 00 00 00 + .byte $00,$00,$00,$00,$00,$00,$00,$00,$00,$00,$00,$00,$00,$2E,$00,$00
  2052 2F20 00 00 00 00 00 00 + .byte $00,$00,$00,$00,$00,$00,$00,$00,$00,$00,$00,$00,$00,$00,$00,$00
  2053 2F30 00 00 00 00 00 00 + .byte $00,$00,$00,$00,$00,$00,$00,$00,$00,$00,$00,$00,$00,$00,$00,$00
